
ctarget:     file format elf64-x86-64


Disassembly of section .init:

0000000000400c48 <_init>:
  400c48:	48 83 ec 08          	sub    $0x8,%rsp
  400c4c:	48 8b 05 a5 43 20 00 	mov    0x2043a5(%rip),%rax        # 604ff8 <__gmon_start__>
  400c53:	48 85 c0             	test   %rax,%rax
  400c56:	74 05                	je     400c5d <_init+0x15>
  400c58:	e8 43 02 00 00       	callq  400ea0 <__gmon_start__@plt>
  400c5d:	48 83 c4 08          	add    $0x8,%rsp
  400c61:	c3                   	retq   

Disassembly of section .plt:

0000000000400c70 <.plt>:
  400c70:	ff 35 92 43 20 00    	pushq  0x204392(%rip)        # 605008 <_GLOBAL_OFFSET_TABLE_+0x8>
  400c76:	ff 25 94 43 20 00    	jmpq   *0x204394(%rip)        # 605010 <_GLOBAL_OFFSET_TABLE_+0x10>
  400c7c:	0f 1f 40 00          	nopl   0x0(%rax)

0000000000400c80 <strcasecmp@plt>:
  400c80:	ff 25 92 43 20 00    	jmpq   *0x204392(%rip)        # 605018 <strcasecmp@GLIBC_2.2.5>
  400c86:	68 00 00 00 00       	pushq  $0x0
  400c8b:	e9 e0 ff ff ff       	jmpq   400c70 <.plt>

0000000000400c90 <__errno_location@plt>:
  400c90:	ff 25 8a 43 20 00    	jmpq   *0x20438a(%rip)        # 605020 <__errno_location@GLIBC_2.2.5>
  400c96:	68 01 00 00 00       	pushq  $0x1
  400c9b:	e9 d0 ff ff ff       	jmpq   400c70 <.plt>

0000000000400ca0 <srandom@plt>:
  400ca0:	ff 25 82 43 20 00    	jmpq   *0x204382(%rip)        # 605028 <srandom@GLIBC_2.2.5>
  400ca6:	68 02 00 00 00       	pushq  $0x2
  400cab:	e9 c0 ff ff ff       	jmpq   400c70 <.plt>

0000000000400cb0 <strncmp@plt>:
  400cb0:	ff 25 7a 43 20 00    	jmpq   *0x20437a(%rip)        # 605030 <strncmp@GLIBC_2.2.5>
  400cb6:	68 03 00 00 00       	pushq  $0x3
  400cbb:	e9 b0 ff ff ff       	jmpq   400c70 <.plt>

0000000000400cc0 <strcpy@plt>:
  400cc0:	ff 25 72 43 20 00    	jmpq   *0x204372(%rip)        # 605038 <strcpy@GLIBC_2.2.5>
  400cc6:	68 04 00 00 00       	pushq  $0x4
  400ccb:	e9 a0 ff ff ff       	jmpq   400c70 <.plt>

0000000000400cd0 <puts@plt>:
  400cd0:	ff 25 6a 43 20 00    	jmpq   *0x20436a(%rip)        # 605040 <puts@GLIBC_2.2.5>
  400cd6:	68 05 00 00 00       	pushq  $0x5
  400cdb:	e9 90 ff ff ff       	jmpq   400c70 <.plt>

0000000000400ce0 <write@plt>:
  400ce0:	ff 25 62 43 20 00    	jmpq   *0x204362(%rip)        # 605048 <write@GLIBC_2.2.5>
  400ce6:	68 06 00 00 00       	pushq  $0x6
  400ceb:	e9 80 ff ff ff       	jmpq   400c70 <.plt>

0000000000400cf0 <__stack_chk_fail@plt>:
  400cf0:	ff 25 5a 43 20 00    	jmpq   *0x20435a(%rip)        # 605050 <__stack_chk_fail@GLIBC_2.4>
  400cf6:	68 07 00 00 00       	pushq  $0x7
  400cfb:	e9 70 ff ff ff       	jmpq   400c70 <.plt>

0000000000400d00 <mmap@plt>:
  400d00:	ff 25 52 43 20 00    	jmpq   *0x204352(%rip)        # 605058 <mmap@GLIBC_2.2.5>
  400d06:	68 08 00 00 00       	pushq  $0x8
  400d0b:	e9 60 ff ff ff       	jmpq   400c70 <.plt>

0000000000400d10 <memset@plt>:
  400d10:	ff 25 4a 43 20 00    	jmpq   *0x20434a(%rip)        # 605060 <memset@GLIBC_2.2.5>
  400d16:	68 09 00 00 00       	pushq  $0x9
  400d1b:	e9 50 ff ff ff       	jmpq   400c70 <.plt>

0000000000400d20 <alarm@plt>:
  400d20:	ff 25 42 43 20 00    	jmpq   *0x204342(%rip)        # 605068 <alarm@GLIBC_2.2.5>
  400d26:	68 0a 00 00 00       	pushq  $0xa
  400d2b:	e9 40 ff ff ff       	jmpq   400c70 <.plt>

0000000000400d30 <close@plt>:
  400d30:	ff 25 3a 43 20 00    	jmpq   *0x20433a(%rip)        # 605070 <close@GLIBC_2.2.5>
  400d36:	68 0b 00 00 00       	pushq  $0xb
  400d3b:	e9 30 ff ff ff       	jmpq   400c70 <.plt>

0000000000400d40 <read@plt>:
  400d40:	ff 25 32 43 20 00    	jmpq   *0x204332(%rip)        # 605078 <read@GLIBC_2.2.5>
  400d46:	68 0c 00 00 00       	pushq  $0xc
  400d4b:	e9 20 ff ff ff       	jmpq   400c70 <.plt>

0000000000400d50 <__libc_start_main@plt>:
  400d50:	ff 25 2a 43 20 00    	jmpq   *0x20432a(%rip)        # 605080 <__libc_start_main@GLIBC_2.2.5>
  400d56:	68 0d 00 00 00       	pushq  $0xd
  400d5b:	e9 10 ff ff ff       	jmpq   400c70 <.plt>

0000000000400d60 <signal@plt>:
  400d60:	ff 25 22 43 20 00    	jmpq   *0x204322(%rip)        # 605088 <signal@GLIBC_2.2.5>
  400d66:	68 0e 00 00 00       	pushq  $0xe
  400d6b:	e9 00 ff ff ff       	jmpq   400c70 <.plt>

0000000000400d70 <gethostbyname@plt>:
  400d70:	ff 25 1a 43 20 00    	jmpq   *0x20431a(%rip)        # 605090 <gethostbyname@GLIBC_2.2.5>
  400d76:	68 0f 00 00 00       	pushq  $0xf
  400d7b:	e9 f0 fe ff ff       	jmpq   400c70 <.plt>

0000000000400d80 <__memmove_chk@plt>:
  400d80:	ff 25 12 43 20 00    	jmpq   *0x204312(%rip)        # 605098 <__memmove_chk@GLIBC_2.3.4>
  400d86:	68 10 00 00 00       	pushq  $0x10
  400d8b:	e9 e0 fe ff ff       	jmpq   400c70 <.plt>

0000000000400d90 <strtol@plt>:
  400d90:	ff 25 0a 43 20 00    	jmpq   *0x20430a(%rip)        # 6050a0 <strtol@GLIBC_2.2.5>
  400d96:	68 11 00 00 00       	pushq  $0x11
  400d9b:	e9 d0 fe ff ff       	jmpq   400c70 <.plt>

0000000000400da0 <memcpy@plt>:
  400da0:	ff 25 02 43 20 00    	jmpq   *0x204302(%rip)        # 6050a8 <memcpy@GLIBC_2.14>
  400da6:	68 12 00 00 00       	pushq  $0x12
  400dab:	e9 c0 fe ff ff       	jmpq   400c70 <.plt>

0000000000400db0 <time@plt>:
  400db0:	ff 25 fa 42 20 00    	jmpq   *0x2042fa(%rip)        # 6050b0 <time@GLIBC_2.2.5>
  400db6:	68 13 00 00 00       	pushq  $0x13
  400dbb:	e9 b0 fe ff ff       	jmpq   400c70 <.plt>

0000000000400dc0 <random@plt>:
  400dc0:	ff 25 f2 42 20 00    	jmpq   *0x2042f2(%rip)        # 6050b8 <random@GLIBC_2.2.5>
  400dc6:	68 14 00 00 00       	pushq  $0x14
  400dcb:	e9 a0 fe ff ff       	jmpq   400c70 <.plt>

0000000000400dd0 <_IO_getc@plt>:
  400dd0:	ff 25 ea 42 20 00    	jmpq   *0x2042ea(%rip)        # 6050c0 <_IO_getc@GLIBC_2.2.5>
  400dd6:	68 15 00 00 00       	pushq  $0x15
  400ddb:	e9 90 fe ff ff       	jmpq   400c70 <.plt>

0000000000400de0 <__isoc99_sscanf@plt>:
  400de0:	ff 25 e2 42 20 00    	jmpq   *0x2042e2(%rip)        # 6050c8 <__isoc99_sscanf@GLIBC_2.7>
  400de6:	68 16 00 00 00       	pushq  $0x16
  400deb:	e9 80 fe ff ff       	jmpq   400c70 <.plt>

0000000000400df0 <munmap@plt>:
  400df0:	ff 25 da 42 20 00    	jmpq   *0x2042da(%rip)        # 6050d0 <munmap@GLIBC_2.2.5>
  400df6:	68 17 00 00 00       	pushq  $0x17
  400dfb:	e9 70 fe ff ff       	jmpq   400c70 <.plt>

0000000000400e00 <__printf_chk@plt>:
  400e00:	ff 25 d2 42 20 00    	jmpq   *0x2042d2(%rip)        # 6050d8 <__printf_chk@GLIBC_2.3.4>
  400e06:	68 18 00 00 00       	pushq  $0x18
  400e0b:	e9 60 fe ff ff       	jmpq   400c70 <.plt>

0000000000400e10 <fopen@plt>:
  400e10:	ff 25 ca 42 20 00    	jmpq   *0x2042ca(%rip)        # 6050e0 <fopen@GLIBC_2.2.5>
  400e16:	68 19 00 00 00       	pushq  $0x19
  400e1b:	e9 50 fe ff ff       	jmpq   400c70 <.plt>

0000000000400e20 <getopt@plt>:
  400e20:	ff 25 c2 42 20 00    	jmpq   *0x2042c2(%rip)        # 6050e8 <getopt@GLIBC_2.2.5>
  400e26:	68 1a 00 00 00       	pushq  $0x1a
  400e2b:	e9 40 fe ff ff       	jmpq   400c70 <.plt>

0000000000400e30 <strtoul@plt>:
  400e30:	ff 25 ba 42 20 00    	jmpq   *0x2042ba(%rip)        # 6050f0 <strtoul@GLIBC_2.2.5>
  400e36:	68 1b 00 00 00       	pushq  $0x1b
  400e3b:	e9 30 fe ff ff       	jmpq   400c70 <.plt>

0000000000400e40 <gethostname@plt>:
  400e40:	ff 25 b2 42 20 00    	jmpq   *0x2042b2(%rip)        # 6050f8 <gethostname@GLIBC_2.2.5>
  400e46:	68 1c 00 00 00       	pushq  $0x1c
  400e4b:	e9 20 fe ff ff       	jmpq   400c70 <.plt>

0000000000400e50 <exit@plt>:
  400e50:	ff 25 aa 42 20 00    	jmpq   *0x2042aa(%rip)        # 605100 <exit@GLIBC_2.2.5>
  400e56:	68 1d 00 00 00       	pushq  $0x1d
  400e5b:	e9 10 fe ff ff       	jmpq   400c70 <.plt>

0000000000400e60 <connect@plt>:
  400e60:	ff 25 a2 42 20 00    	jmpq   *0x2042a2(%rip)        # 605108 <connect@GLIBC_2.2.5>
  400e66:	68 1e 00 00 00       	pushq  $0x1e
  400e6b:	e9 00 fe ff ff       	jmpq   400c70 <.plt>

0000000000400e70 <__fprintf_chk@plt>:
  400e70:	ff 25 9a 42 20 00    	jmpq   *0x20429a(%rip)        # 605110 <__fprintf_chk@GLIBC_2.3.4>
  400e76:	68 1f 00 00 00       	pushq  $0x1f
  400e7b:	e9 f0 fd ff ff       	jmpq   400c70 <.plt>

0000000000400e80 <__sprintf_chk@plt>:
  400e80:	ff 25 92 42 20 00    	jmpq   *0x204292(%rip)        # 605118 <__sprintf_chk@GLIBC_2.3.4>
  400e86:	68 20 00 00 00       	pushq  $0x20
  400e8b:	e9 e0 fd ff ff       	jmpq   400c70 <.plt>

0000000000400e90 <socket@plt>:
  400e90:	ff 25 8a 42 20 00    	jmpq   *0x20428a(%rip)        # 605120 <socket@GLIBC_2.2.5>
  400e96:	68 21 00 00 00       	pushq  $0x21
  400e9b:	e9 d0 fd ff ff       	jmpq   400c70 <.plt>

Disassembly of section .plt.got:

0000000000400ea0 <__gmon_start__@plt>:
  400ea0:	ff 25 52 41 20 00    	jmpq   *0x204152(%rip)        # 604ff8 <__gmon_start__>
  400ea6:	66 90                	xchg   %ax,%ax

Disassembly of section .text:

0000000000400eb0 <_start>:
  400eb0:	31 ed                	xor    %ebp,%ebp
  400eb2:	49 89 d1             	mov    %rdx,%r9
  400eb5:	5e                   	pop    %rsi
  400eb6:	48 89 e2             	mov    %rsp,%rdx
  400eb9:	48 83 e4 f0          	and    $0xfffffffffffffff0,%rsp
  400ebd:	50                   	push   %rax
  400ebe:	54                   	push   %rsp
  400ebf:	49 c7 c0 e0 2e 40 00 	mov    $0x402ee0,%r8
  400ec6:	48 c7 c1 70 2e 40 00 	mov    $0x402e70,%rcx
  400ecd:	48 c7 c7 b5 11 40 00 	mov    $0x4011b5,%rdi
  400ed4:	e8 77 fe ff ff       	callq  400d50 <__libc_start_main@plt>
  400ed9:	f4                   	hlt    
  400eda:	66 0f 1f 44 00 00    	nopw   0x0(%rax,%rax,1)

0000000000400ee0 <deregister_tm_clones>:
  400ee0:	b8 b7 54 60 00       	mov    $0x6054b7,%eax
  400ee5:	55                   	push   %rbp
  400ee6:	48 2d b0 54 60 00    	sub    $0x6054b0,%rax
  400eec:	48 83 f8 0e          	cmp    $0xe,%rax
  400ef0:	48 89 e5             	mov    %rsp,%rbp
  400ef3:	76 1b                	jbe    400f10 <deregister_tm_clones+0x30>
  400ef5:	b8 00 00 00 00       	mov    $0x0,%eax
  400efa:	48 85 c0             	test   %rax,%rax
  400efd:	74 11                	je     400f10 <deregister_tm_clones+0x30>
  400eff:	5d                   	pop    %rbp
  400f00:	bf b0 54 60 00       	mov    $0x6054b0,%edi
  400f05:	ff e0                	jmpq   *%rax
  400f07:	66 0f 1f 84 00 00 00 	nopw   0x0(%rax,%rax,1)
  400f0e:	00 00 
  400f10:	5d                   	pop    %rbp
  400f11:	c3                   	retq   
  400f12:	0f 1f 40 00          	nopl   0x0(%rax)
  400f16:	66 2e 0f 1f 84 00 00 	nopw   %cs:0x0(%rax,%rax,1)
  400f1d:	00 00 00 

0000000000400f20 <register_tm_clones>:
  400f20:	be b0 54 60 00       	mov    $0x6054b0,%esi
  400f25:	55                   	push   %rbp
  400f26:	48 81 ee b0 54 60 00 	sub    $0x6054b0,%rsi
  400f2d:	48 c1 fe 03          	sar    $0x3,%rsi
  400f31:	48 89 e5             	mov    %rsp,%rbp
  400f34:	48 89 f0             	mov    %rsi,%rax
  400f37:	48 c1 e8 3f          	shr    $0x3f,%rax
  400f3b:	48 01 c6             	add    %rax,%rsi
  400f3e:	48 d1 fe             	sar    %rsi
  400f41:	74 15                	je     400f58 <register_tm_clones+0x38>
  400f43:	b8 00 00 00 00       	mov    $0x0,%eax
  400f48:	48 85 c0             	test   %rax,%rax
  400f4b:	74 0b                	je     400f58 <register_tm_clones+0x38>
  400f4d:	5d                   	pop    %rbp
  400f4e:	bf b0 54 60 00       	mov    $0x6054b0,%edi
  400f53:	ff e0                	jmpq   *%rax
  400f55:	0f 1f 00             	nopl   (%rax)
  400f58:	5d                   	pop    %rbp
  400f59:	c3                   	retq   
  400f5a:	66 0f 1f 44 00 00    	nopw   0x0(%rax,%rax,1)

0000000000400f60 <__do_global_dtors_aux>:
  400f60:	80 3d 81 45 20 00 00 	cmpb   $0x0,0x204581(%rip)        # 6054e8 <completed.7585>
  400f67:	75 11                	jne    400f7a <__do_global_dtors_aux+0x1a>
  400f69:	55                   	push   %rbp
  400f6a:	48 89 e5             	mov    %rsp,%rbp
  400f6d:	e8 6e ff ff ff       	callq  400ee0 <deregister_tm_clones>
  400f72:	5d                   	pop    %rbp
  400f73:	c6 05 6e 45 20 00 01 	movb   $0x1,0x20456e(%rip)        # 6054e8 <completed.7585>
  400f7a:	f3 c3                	repz retq 
  400f7c:	0f 1f 40 00          	nopl   0x0(%rax)

0000000000400f80 <frame_dummy>:
  400f80:	bf 20 4e 60 00       	mov    $0x604e20,%edi
  400f85:	48 83 3f 00          	cmpq   $0x0,(%rdi)
  400f89:	75 05                	jne    400f90 <frame_dummy+0x10>
  400f8b:	eb 93                	jmp    400f20 <register_tm_clones>
  400f8d:	0f 1f 00             	nopl   (%rax)
  400f90:	b8 00 00 00 00       	mov    $0x0,%eax
  400f95:	48 85 c0             	test   %rax,%rax
  400f98:	74 f1                	je     400f8b <frame_dummy+0xb>
  400f9a:	55                   	push   %rbp
  400f9b:	48 89 e5             	mov    %rsp,%rbp
  400f9e:	ff d0                	callq  *%rax
  400fa0:	5d                   	pop    %rbp
  400fa1:	e9 7a ff ff ff       	jmpq   400f20 <register_tm_clones>

0000000000400fa6 <usage>:
  400fa6:	48 83 ec 08          	sub    $0x8,%rsp
  400faa:	48 89 fa             	mov    %rdi,%rdx
  400fad:	83 3d 74 45 20 00 00 	cmpl   $0x0,0x204574(%rip)        # 605528 <is_checker>
  400fb4:	74 3e                	je     400ff4 <usage+0x4e>
  400fb6:	be f8 2e 40 00       	mov    $0x402ef8,%esi
  400fbb:	bf 01 00 00 00       	mov    $0x1,%edi
  400fc0:	b8 00 00 00 00       	mov    $0x0,%eax
  400fc5:	e8 36 fe ff ff       	callq  400e00 <__printf_chk@plt>
  400fca:	bf 30 2f 40 00       	mov    $0x402f30,%edi
  400fcf:	e8 fc fc ff ff       	callq  400cd0 <puts@plt>
  400fd4:	bf a8 30 40 00       	mov    $0x4030a8,%edi
  400fd9:	e8 f2 fc ff ff       	callq  400cd0 <puts@plt>
  400fde:	bf 58 2f 40 00       	mov    $0x402f58,%edi
  400fe3:	e8 e8 fc ff ff       	callq  400cd0 <puts@plt>
  400fe8:	bf c2 30 40 00       	mov    $0x4030c2,%edi
  400fed:	e8 de fc ff ff       	callq  400cd0 <puts@plt>
  400ff2:	eb 32                	jmp    401026 <usage+0x80>
  400ff4:	be de 30 40 00       	mov    $0x4030de,%esi
  400ff9:	bf 01 00 00 00       	mov    $0x1,%edi
  400ffe:	b8 00 00 00 00       	mov    $0x0,%eax
  401003:	e8 f8 fd ff ff       	callq  400e00 <__printf_chk@plt>
  401008:	bf 80 2f 40 00       	mov    $0x402f80,%edi
  40100d:	e8 be fc ff ff       	callq  400cd0 <puts@plt>
  401012:	bf a8 2f 40 00       	mov    $0x402fa8,%edi
  401017:	e8 b4 fc ff ff       	callq  400cd0 <puts@plt>
  40101c:	bf fc 30 40 00       	mov    $0x4030fc,%edi
  401021:	e8 aa fc ff ff       	callq  400cd0 <puts@plt>
  401026:	bf 00 00 00 00       	mov    $0x0,%edi
  40102b:	e8 20 fe ff ff       	callq  400e50 <exit@plt>

0000000000401030 <initialize_target>:
  401030:	55                   	push   %rbp
  401031:	53                   	push   %rbx
  401032:	48 81 ec 18 21 00 00 	sub    $0x2118,%rsp
  401039:	89 f5                	mov    %esi,%ebp
  40103b:	64 48 8b 04 25 28 00 	mov    %fs:0x28,%rax
  401042:	00 00 
  401044:	48 89 84 24 08 21 00 	mov    %rax,0x2108(%rsp)
  40104b:	00 
  40104c:	31 c0                	xor    %eax,%eax
  40104e:	89 3d c4 44 20 00    	mov    %edi,0x2044c4(%rip)        # 605518 <check_level>
  401054:	8b 3d 0e 41 20 00    	mov    0x20410e(%rip),%edi        # 605168 <target_id>
  40105a:	e8 e9 1d 00 00       	callq  402e48 <gencookie>
  40105f:	89 05 bf 44 20 00    	mov    %eax,0x2044bf(%rip)        # 605524 <cookie>
  401065:	89 c7                	mov    %eax,%edi
  401067:	e8 dc 1d 00 00       	callq  402e48 <gencookie>
  40106c:	89 05 ae 44 20 00    	mov    %eax,0x2044ae(%rip)        # 605520 <authkey>
  401072:	8b 05 f0 40 20 00    	mov    0x2040f0(%rip),%eax        # 605168 <target_id>
  401078:	8d 78 01             	lea    0x1(%rax),%edi
  40107b:	e8 20 fc ff ff       	callq  400ca0 <srandom@plt>
  401080:	e8 3b fd ff ff       	callq  400dc0 <random@plt>
  401085:	89 c7                	mov    %eax,%edi
  401087:	e8 03 03 00 00       	callq  40138f <scramble>
  40108c:	89 c3                	mov    %eax,%ebx
  40108e:	85 ed                	test   %ebp,%ebp
  401090:	74 18                	je     4010aa <initialize_target+0x7a>
  401092:	bf 00 00 00 00       	mov    $0x0,%edi
  401097:	e8 14 fd ff ff       	callq  400db0 <time@plt>
  40109c:	89 c7                	mov    %eax,%edi
  40109e:	e8 fd fb ff ff       	callq  400ca0 <srandom@plt>
  4010a3:	e8 18 fd ff ff       	callq  400dc0 <random@plt>
  4010a8:	eb 05                	jmp    4010af <initialize_target+0x7f>
  4010aa:	b8 00 00 00 00       	mov    $0x0,%eax
  4010af:	01 c3                	add    %eax,%ebx
  4010b1:	0f b7 db             	movzwl %bx,%ebx
  4010b4:	8d 04 dd 00 01 00 00 	lea    0x100(,%rbx,8),%eax
  4010bb:	89 c0                	mov    %eax,%eax
  4010bd:	48 89 05 dc 43 20 00 	mov    %rax,0x2043dc(%rip)        # 6054a0 <buf_offset>
  4010c4:	c6 05 7d 50 20 00 63 	movb   $0x63,0x20507d(%rip)        # 606148 <target_prefix>
  4010cb:	83 3d d6 43 20 00 00 	cmpl   $0x0,0x2043d6(%rip)        # 6054a8 <notify>
  4010d2:	0f 84 bb 00 00 00    	je     401193 <initialize_target+0x163>
  4010d8:	83 3d 49 44 20 00 00 	cmpl   $0x0,0x204449(%rip)        # 605528 <is_checker>
  4010df:	0f 85 ae 00 00 00    	jne    401193 <initialize_target+0x163>
  4010e5:	be 00 01 00 00       	mov    $0x100,%esi
  4010ea:	48 89 e7             	mov    %rsp,%rdi
  4010ed:	e8 4e fd ff ff       	callq  400e40 <gethostname@plt>
  4010f2:	85 c0                	test   %eax,%eax
  4010f4:	74 25                	je     40111b <initialize_target+0xeb>
  4010f6:	bf d8 2f 40 00       	mov    $0x402fd8,%edi
  4010fb:	e8 d0 fb ff ff       	callq  400cd0 <puts@plt>
  401100:	bf 08 00 00 00       	mov    $0x8,%edi
  401105:	e8 46 fd ff ff       	callq  400e50 <exit@plt>
  40110a:	48 89 e6             	mov    %rsp,%rsi
  40110d:	e8 6e fb ff ff       	callq  400c80 <strcasecmp@plt>
  401112:	85 c0                	test   %eax,%eax
  401114:	74 21                	je     401137 <initialize_target+0x107>
  401116:	83 c3 01             	add    $0x1,%ebx
  401119:	eb 05                	jmp    401120 <initialize_target+0xf0>
  40111b:	bb 00 00 00 00       	mov    $0x0,%ebx
  401120:	48 63 c3             	movslq %ebx,%rax
  401123:	48 8b 3c c5 80 51 60 	mov    0x605180(,%rax,8),%rdi
  40112a:	00 
  40112b:	48 85 ff             	test   %rdi,%rdi
  40112e:	75 da                	jne    40110a <initialize_target+0xda>
  401130:	b8 00 00 00 00       	mov    $0x0,%eax
  401135:	eb 05                	jmp    40113c <initialize_target+0x10c>
  401137:	b8 01 00 00 00       	mov    $0x1,%eax
  40113c:	85 c0                	test   %eax,%eax
  40113e:	75 1c                	jne    40115c <initialize_target+0x12c>
  401140:	48 89 e2             	mov    %rsp,%rdx
  401143:	be 10 30 40 00       	mov    $0x403010,%esi
  401148:	bf 01 00 00 00       	mov    $0x1,%edi
  40114d:	e8 ae fc ff ff       	callq  400e00 <__printf_chk@plt>
  401152:	bf 08 00 00 00       	mov    $0x8,%edi
  401157:	e8 f4 fc ff ff       	callq  400e50 <exit@plt>
  40115c:	48 8d bc 24 00 01 00 	lea    0x100(%rsp),%rdi
  401163:	00 
  401164:	e8 49 1a 00 00       	callq  402bb2 <init_driver>
  401169:	85 c0                	test   %eax,%eax
  40116b:	79 26                	jns    401193 <initialize_target+0x163>
  40116d:	48 8d 94 24 00 01 00 	lea    0x100(%rsp),%rdx
  401174:	00 
  401175:	be 50 30 40 00       	mov    $0x403050,%esi
  40117a:	bf 01 00 00 00       	mov    $0x1,%edi
  40117f:	b8 00 00 00 00       	mov    $0x0,%eax
  401184:	e8 77 fc ff ff       	callq  400e00 <__printf_chk@plt>
  401189:	bf 08 00 00 00       	mov    $0x8,%edi
  40118e:	e8 bd fc ff ff       	callq  400e50 <exit@plt>
  401193:	48 8b 84 24 08 21 00 	mov    0x2108(%rsp),%rax
  40119a:	00 
  40119b:	64 48 33 04 25 28 00 	xor    %fs:0x28,%rax
  4011a2:	00 00 
  4011a4:	74 05                	je     4011ab <initialize_target+0x17b>
  4011a6:	e8 45 fb ff ff       	callq  400cf0 <__stack_chk_fail@plt>
  4011ab:	48 81 c4 18 21 00 00 	add    $0x2118,%rsp
  4011b2:	5b                   	pop    %rbx
  4011b3:	5d                   	pop    %rbp
  4011b4:	c3                   	retq   

00000000004011b5 <main>:
  4011b5:	41 56                	push   %r14
  4011b7:	41 55                	push   %r13
  4011b9:	41 54                	push   %r12
  4011bb:	55                   	push   %rbp
  4011bc:	53                   	push   %rbx
  4011bd:	41 89 fc             	mov    %edi,%r12d
  4011c0:	48 89 f3             	mov    %rsi,%rbx
  4011c3:	be ed 1e 40 00       	mov    $0x401eed,%esi
  4011c8:	bf 0b 00 00 00       	mov    $0xb,%edi
  4011cd:	e8 8e fb ff ff       	callq  400d60 <signal@plt>
  4011d2:	be 9f 1e 40 00       	mov    $0x401e9f,%esi
  4011d7:	bf 07 00 00 00       	mov    $0x7,%edi
  4011dc:	e8 7f fb ff ff       	callq  400d60 <signal@plt>
  4011e1:	be 3b 1f 40 00       	mov    $0x401f3b,%esi
  4011e6:	bf 04 00 00 00       	mov    $0x4,%edi
  4011eb:	e8 70 fb ff ff       	callq  400d60 <signal@plt>
  4011f0:	83 3d 31 43 20 00 00 	cmpl   $0x0,0x204331(%rip)        # 605528 <is_checker>
  4011f7:	74 20                	je     401219 <main+0x64>
  4011f9:	be 89 1f 40 00       	mov    $0x401f89,%esi
  4011fe:	bf 0e 00 00 00       	mov    $0xe,%edi
  401203:	e8 58 fb ff ff       	callq  400d60 <signal@plt>
  401208:	bf 05 00 00 00       	mov    $0x5,%edi
  40120d:	e8 0e fb ff ff       	callq  400d20 <alarm@plt>
  401212:	bd 1a 31 40 00       	mov    $0x40311a,%ebp
  401217:	eb 05                	jmp    40121e <main+0x69>
  401219:	bd 15 31 40 00       	mov    $0x403115,%ebp
  40121e:	48 8b 05 9b 42 20 00 	mov    0x20429b(%rip),%rax        # 6054c0 <stdin@@GLIBC_2.2.5>
  401225:	48 89 05 e4 42 20 00 	mov    %rax,0x2042e4(%rip)        # 605510 <infile>
  40122c:	41 bd 00 00 00 00    	mov    $0x0,%r13d
  401232:	41 be 00 00 00 00    	mov    $0x0,%r14d
  401238:	e9 c6 00 00 00       	jmpq   401303 <main+0x14e>
  40123d:	83 e8 61             	sub    $0x61,%eax
  401240:	3c 10                	cmp    $0x10,%al
  401242:	0f 87 9c 00 00 00    	ja     4012e4 <main+0x12f>
  401248:	0f b6 c0             	movzbl %al,%eax
  40124b:	ff 24 c5 60 31 40 00 	jmpq   *0x403160(,%rax,8)
  401252:	48 8b 3b             	mov    (%rbx),%rdi
  401255:	e8 4c fd ff ff       	callq  400fa6 <usage>
  40125a:	be 17 33 40 00       	mov    $0x403317,%esi
  40125f:	48 8b 3d 62 42 20 00 	mov    0x204262(%rip),%rdi        # 6054c8 <optarg@@GLIBC_2.2.5>
  401266:	e8 a5 fb ff ff       	callq  400e10 <fopen@plt>
  40126b:	48 89 05 9e 42 20 00 	mov    %rax,0x20429e(%rip)        # 605510 <infile>
  401272:	48 85 c0             	test   %rax,%rax
  401275:	0f 85 88 00 00 00    	jne    401303 <main+0x14e>
  40127b:	48 8b 0d 46 42 20 00 	mov    0x204246(%rip),%rcx        # 6054c8 <optarg@@GLIBC_2.2.5>
  401282:	ba 22 31 40 00       	mov    $0x403122,%edx
  401287:	be 01 00 00 00       	mov    $0x1,%esi
  40128c:	48 8b 3d 4d 42 20 00 	mov    0x20424d(%rip),%rdi        # 6054e0 <stderr@@GLIBC_2.2.5>
  401293:	e8 d8 fb ff ff       	callq  400e70 <__fprintf_chk@plt>
  401298:	b8 01 00 00 00       	mov    $0x1,%eax
  40129d:	e9 e4 00 00 00       	jmpq   401386 <main+0x1d1>
  4012a2:	ba 10 00 00 00       	mov    $0x10,%edx
  4012a7:	be 00 00 00 00       	mov    $0x0,%esi
  4012ac:	48 8b 3d 15 42 20 00 	mov    0x204215(%rip),%rdi        # 6054c8 <optarg@@GLIBC_2.2.5>
  4012b3:	e8 78 fb ff ff       	callq  400e30 <strtoul@plt>
  4012b8:	41 89 c6             	mov    %eax,%r14d
  4012bb:	eb 46                	jmp    401303 <main+0x14e>
  4012bd:	ba 0a 00 00 00       	mov    $0xa,%edx
  4012c2:	be 00 00 00 00       	mov    $0x0,%esi
  4012c7:	48 8b 3d fa 41 20 00 	mov    0x2041fa(%rip),%rdi        # 6054c8 <optarg@@GLIBC_2.2.5>
  4012ce:	e8 bd fa ff ff       	callq  400d90 <strtol@plt>
  4012d3:	41 89 c5             	mov    %eax,%r13d
  4012d6:	eb 2b                	jmp    401303 <main+0x14e>
  4012d8:	c7 05 c6 41 20 00 00 	movl   $0x0,0x2041c6(%rip)        # 6054a8 <notify>
  4012df:	00 00 00 
  4012e2:	eb 1f                	jmp    401303 <main+0x14e>
  4012e4:	0f be d2             	movsbl %dl,%edx
  4012e7:	be 3f 31 40 00       	mov    $0x40313f,%esi
  4012ec:	bf 01 00 00 00       	mov    $0x1,%edi
  4012f1:	b8 00 00 00 00       	mov    $0x0,%eax
  4012f6:	e8 05 fb ff ff       	callq  400e00 <__printf_chk@plt>
  4012fb:	48 8b 3b             	mov    (%rbx),%rdi
  4012fe:	e8 a3 fc ff ff       	callq  400fa6 <usage>
  401303:	48 89 ea             	mov    %rbp,%rdx
  401306:	48 89 de             	mov    %rbx,%rsi
  401309:	44 89 e7             	mov    %r12d,%edi
  40130c:	e8 0f fb ff ff       	callq  400e20 <getopt@plt>
  401311:	89 c2                	mov    %eax,%edx
  401313:	3c ff                	cmp    $0xff,%al
  401315:	0f 85 22 ff ff ff    	jne    40123d <main+0x88>
  40131b:	be 00 00 00 00       	mov    $0x0,%esi
  401320:	44 89 ef             	mov    %r13d,%edi
  401323:	e8 08 fd ff ff       	callq  401030 <initialize_target>
  401328:	83 3d f9 41 20 00 00 	cmpl   $0x0,0x2041f9(%rip)        # 605528 <is_checker>
  40132f:	74 2a                	je     40135b <main+0x1a6>
  401331:	44 3b 35 e8 41 20 00 	cmp    0x2041e8(%rip),%r14d        # 605520 <authkey>
  401338:	74 21                	je     40135b <main+0x1a6>
  40133a:	44 89 f2             	mov    %r14d,%edx
  40133d:	be 78 30 40 00       	mov    $0x403078,%esi
  401342:	bf 01 00 00 00       	mov    $0x1,%edi
  401347:	b8 00 00 00 00       	mov    $0x0,%eax
  40134c:	e8 af fa ff ff       	callq  400e00 <__printf_chk@plt>
  401351:	b8 00 00 00 00       	mov    $0x0,%eax
  401356:	e8 c6 07 00 00       	callq  401b21 <check_fail>
  40135b:	8b 15 c3 41 20 00    	mov    0x2041c3(%rip),%edx        # 605524 <cookie>
  401361:	be 52 31 40 00       	mov    $0x403152,%esi
  401366:	bf 01 00 00 00       	mov    $0x1,%edi
  40136b:	b8 00 00 00 00       	mov    $0x0,%eax
  401370:	e8 8b fa ff ff       	callq  400e00 <__printf_chk@plt>
  401375:	48 8b 3d 24 41 20 00 	mov    0x204124(%rip),%rdi        # 6054a0 <buf_offset>
  40137c:	e8 08 0d 00 00       	callq  402089 <stable_launch>
  401381:	b8 00 00 00 00       	mov    $0x0,%eax
  401386:	5b                   	pop    %rbx
  401387:	5d                   	pop    %rbp
  401388:	41 5c                	pop    %r12
  40138a:	41 5d                	pop    %r13
  40138c:	41 5e                	pop    %r14
  40138e:	c3                   	retq   

000000000040138f <scramble>:
  40138f:	48 83 ec 38          	sub    $0x38,%rsp
  401393:	64 48 8b 04 25 28 00 	mov    %fs:0x28,%rax
  40139a:	00 00 
  40139c:	48 89 44 24 28       	mov    %rax,0x28(%rsp)
  4013a1:	31 c0                	xor    %eax,%eax
  4013a3:	eb 10                	jmp    4013b5 <scramble+0x26>
  4013a5:	69 d0 59 3f 00 00    	imul   $0x3f59,%eax,%edx
  4013ab:	01 fa                	add    %edi,%edx
  4013ad:	89 c1                	mov    %eax,%ecx
  4013af:	89 14 8c             	mov    %edx,(%rsp,%rcx,4)
  4013b2:	83 c0 01             	add    $0x1,%eax
  4013b5:	83 f8 09             	cmp    $0x9,%eax
  4013b8:	76 eb                	jbe    4013a5 <scramble+0x16>
  4013ba:	8b 44 24 1c          	mov    0x1c(%rsp),%eax
  4013be:	69 c0 85 14 00 00    	imul   $0x1485,%eax,%eax
  4013c4:	89 44 24 1c          	mov    %eax,0x1c(%rsp)
  4013c8:	8b 44 24 14          	mov    0x14(%rsp),%eax
  4013cc:	69 c0 b6 83 00 00    	imul   $0x83b6,%eax,%eax
  4013d2:	89 44 24 14          	mov    %eax,0x14(%rsp)
  4013d6:	8b 44 24 14          	mov    0x14(%rsp),%eax
  4013da:	69 c0 d4 1b 00 00    	imul   $0x1bd4,%eax,%eax
  4013e0:	89 44 24 14          	mov    %eax,0x14(%rsp)
  4013e4:	8b 44 24 18          	mov    0x18(%rsp),%eax
  4013e8:	69 c0 08 27 00 00    	imul   $0x2708,%eax,%eax
  4013ee:	89 44 24 18          	mov    %eax,0x18(%rsp)
  4013f2:	8b 44 24 20          	mov    0x20(%rsp),%eax
  4013f6:	69 c0 f8 a9 00 00    	imul   $0xa9f8,%eax,%eax
  4013fc:	89 44 24 20          	mov    %eax,0x20(%rsp)
  401400:	8b 44 24 08          	mov    0x8(%rsp),%eax
  401404:	69 c0 19 03 00 00    	imul   $0x319,%eax,%eax
  40140a:	89 44 24 08          	mov    %eax,0x8(%rsp)
  40140e:	8b 44 24 04          	mov    0x4(%rsp),%eax
  401412:	69 c0 bc cf 00 00    	imul   $0xcfbc,%eax,%eax
  401418:	89 44 24 04          	mov    %eax,0x4(%rsp)
  40141c:	8b 44 24 14          	mov    0x14(%rsp),%eax
  401420:	69 c0 7e 87 00 00    	imul   $0x877e,%eax,%eax
  401426:	89 44 24 14          	mov    %eax,0x14(%rsp)
  40142a:	8b 44 24 18          	mov    0x18(%rsp),%eax
  40142e:	69 c0 85 d1 00 00    	imul   $0xd185,%eax,%eax
  401434:	89 44 24 18          	mov    %eax,0x18(%rsp)
  401438:	8b 44 24 04          	mov    0x4(%rsp),%eax
  40143c:	69 c0 3a fa 00 00    	imul   $0xfa3a,%eax,%eax
  401442:	89 44 24 04          	mov    %eax,0x4(%rsp)
  401446:	8b 44 24 18          	mov    0x18(%rsp),%eax
  40144a:	69 c0 f1 26 00 00    	imul   $0x26f1,%eax,%eax
  401450:	89 44 24 18          	mov    %eax,0x18(%rsp)
  401454:	8b 44 24 10          	mov    0x10(%rsp),%eax
  401458:	69 c0 cf 05 00 00    	imul   $0x5cf,%eax,%eax
  40145e:	89 44 24 10          	mov    %eax,0x10(%rsp)
  401462:	8b 44 24 08          	mov    0x8(%rsp),%eax
  401466:	69 c0 0b 95 00 00    	imul   $0x950b,%eax,%eax
  40146c:	89 44 24 08          	mov    %eax,0x8(%rsp)
  401470:	8b 44 24 14          	mov    0x14(%rsp),%eax
  401474:	69 c0 aa cc 00 00    	imul   $0xccaa,%eax,%eax
  40147a:	89 44 24 14          	mov    %eax,0x14(%rsp)
  40147e:	8b 44 24 0c          	mov    0xc(%rsp),%eax
  401482:	69 c0 b3 de 00 00    	imul   $0xdeb3,%eax,%eax
  401488:	89 44 24 0c          	mov    %eax,0xc(%rsp)
  40148c:	8b 44 24 20          	mov    0x20(%rsp),%eax
  401490:	69 c0 7e 95 00 00    	imul   $0x957e,%eax,%eax
  401496:	89 44 24 20          	mov    %eax,0x20(%rsp)
  40149a:	8b 44 24 1c          	mov    0x1c(%rsp),%eax
  40149e:	69 c0 50 37 00 00    	imul   $0x3750,%eax,%eax
  4014a4:	89 44 24 1c          	mov    %eax,0x1c(%rsp)
  4014a8:	8b 44 24 18          	mov    0x18(%rsp),%eax
  4014ac:	69 c0 54 a5 00 00    	imul   $0xa554,%eax,%eax
  4014b2:	89 44 24 18          	mov    %eax,0x18(%rsp)
  4014b6:	8b 44 24 18          	mov    0x18(%rsp),%eax
  4014ba:	69 c0 e0 85 00 00    	imul   $0x85e0,%eax,%eax
  4014c0:	89 44 24 18          	mov    %eax,0x18(%rsp)
  4014c4:	8b 44 24 24          	mov    0x24(%rsp),%eax
  4014c8:	69 c0 86 30 00 00    	imul   $0x3086,%eax,%eax
  4014ce:	89 44 24 24          	mov    %eax,0x24(%rsp)
  4014d2:	8b 44 24 04          	mov    0x4(%rsp),%eax
  4014d6:	69 c0 4c e6 00 00    	imul   $0xe64c,%eax,%eax
  4014dc:	89 44 24 04          	mov    %eax,0x4(%rsp)
  4014e0:	8b 44 24 20          	mov    0x20(%rsp),%eax
  4014e4:	69 c0 0b f6 00 00    	imul   $0xf60b,%eax,%eax
  4014ea:	89 44 24 20          	mov    %eax,0x20(%rsp)
  4014ee:	8b 44 24 18          	mov    0x18(%rsp),%eax
  4014f2:	69 c0 2a 8e 00 00    	imul   $0x8e2a,%eax,%eax
  4014f8:	89 44 24 18          	mov    %eax,0x18(%rsp)
  4014fc:	8b 44 24 10          	mov    0x10(%rsp),%eax
  401500:	69 c0 65 f1 00 00    	imul   $0xf165,%eax,%eax
  401506:	89 44 24 10          	mov    %eax,0x10(%rsp)
  40150a:	8b 44 24 08          	mov    0x8(%rsp),%eax
  40150e:	69 c0 1c de 00 00    	imul   $0xde1c,%eax,%eax
  401514:	89 44 24 08          	mov    %eax,0x8(%rsp)
  401518:	8b 44 24 14          	mov    0x14(%rsp),%eax
  40151c:	69 c0 c9 2c 00 00    	imul   $0x2cc9,%eax,%eax
  401522:	89 44 24 14          	mov    %eax,0x14(%rsp)
  401526:	8b 04 24             	mov    (%rsp),%eax
  401529:	69 c0 b0 7e 00 00    	imul   $0x7eb0,%eax,%eax
  40152f:	89 04 24             	mov    %eax,(%rsp)
  401532:	8b 44 24 20          	mov    0x20(%rsp),%eax
  401536:	69 c0 79 7c 00 00    	imul   $0x7c79,%eax,%eax
  40153c:	89 44 24 20          	mov    %eax,0x20(%rsp)
  401540:	8b 44 24 14          	mov    0x14(%rsp),%eax
  401544:	69 c0 64 23 00 00    	imul   $0x2364,%eax,%eax
  40154a:	89 44 24 14          	mov    %eax,0x14(%rsp)
  40154e:	8b 44 24 14          	mov    0x14(%rsp),%eax
  401552:	69 c0 e1 69 00 00    	imul   $0x69e1,%eax,%eax
  401558:	89 44 24 14          	mov    %eax,0x14(%rsp)
  40155c:	8b 44 24 10          	mov    0x10(%rsp),%eax
  401560:	69 c0 d6 00 00 00    	imul   $0xd6,%eax,%eax
  401566:	89 44 24 10          	mov    %eax,0x10(%rsp)
  40156a:	8b 44 24 08          	mov    0x8(%rsp),%eax
  40156e:	69 c0 4f f5 00 00    	imul   $0xf54f,%eax,%eax
  401574:	89 44 24 08          	mov    %eax,0x8(%rsp)
  401578:	8b 44 24 04          	mov    0x4(%rsp),%eax
  40157c:	69 c0 95 18 00 00    	imul   $0x1895,%eax,%eax
  401582:	89 44 24 04          	mov    %eax,0x4(%rsp)
  401586:	8b 44 24 1c          	mov    0x1c(%rsp),%eax
  40158a:	69 c0 4a 8b 00 00    	imul   $0x8b4a,%eax,%eax
  401590:	89 44 24 1c          	mov    %eax,0x1c(%rsp)
  401594:	8b 44 24 08          	mov    0x8(%rsp),%eax
  401598:	69 c0 ff 66 00 00    	imul   $0x66ff,%eax,%eax
  40159e:	89 44 24 08          	mov    %eax,0x8(%rsp)
  4015a2:	8b 44 24 14          	mov    0x14(%rsp),%eax
  4015a6:	69 c0 4e ce 00 00    	imul   $0xce4e,%eax,%eax
  4015ac:	89 44 24 14          	mov    %eax,0x14(%rsp)
  4015b0:	8b 04 24             	mov    (%rsp),%eax
  4015b3:	69 c0 6f ef 00 00    	imul   $0xef6f,%eax,%eax
  4015b9:	89 04 24             	mov    %eax,(%rsp)
  4015bc:	8b 04 24             	mov    (%rsp),%eax
  4015bf:	69 c0 54 03 00 00    	imul   $0x354,%eax,%eax
  4015c5:	89 04 24             	mov    %eax,(%rsp)
  4015c8:	8b 44 24 04          	mov    0x4(%rsp),%eax
  4015cc:	69 c0 e4 41 00 00    	imul   $0x41e4,%eax,%eax
  4015d2:	89 44 24 04          	mov    %eax,0x4(%rsp)
  4015d6:	8b 44 24 08          	mov    0x8(%rsp),%eax
  4015da:	69 c0 4a dd 00 00    	imul   $0xdd4a,%eax,%eax
  4015e0:	89 44 24 08          	mov    %eax,0x8(%rsp)
  4015e4:	8b 44 24 04          	mov    0x4(%rsp),%eax
  4015e8:	69 c0 59 e0 00 00    	imul   $0xe059,%eax,%eax
  4015ee:	89 44 24 04          	mov    %eax,0x4(%rsp)
  4015f2:	8b 44 24 10          	mov    0x10(%rsp),%eax
  4015f6:	69 c0 0d 25 00 00    	imul   $0x250d,%eax,%eax
  4015fc:	89 44 24 10          	mov    %eax,0x10(%rsp)
  401600:	8b 04 24             	mov    (%rsp),%eax
  401603:	69 c0 ab 3c 00 00    	imul   $0x3cab,%eax,%eax
  401609:	89 04 24             	mov    %eax,(%rsp)
  40160c:	8b 44 24 1c          	mov    0x1c(%rsp),%eax
  401610:	69 c0 c6 72 00 00    	imul   $0x72c6,%eax,%eax
  401616:	89 44 24 1c          	mov    %eax,0x1c(%rsp)
  40161a:	8b 44 24 24          	mov    0x24(%rsp),%eax
  40161e:	69 c0 aa ea 00 00    	imul   $0xeaaa,%eax,%eax
  401624:	89 44 24 24          	mov    %eax,0x24(%rsp)
  401628:	8b 44 24 18          	mov    0x18(%rsp),%eax
  40162c:	69 c0 26 62 00 00    	imul   $0x6226,%eax,%eax
  401632:	89 44 24 18          	mov    %eax,0x18(%rsp)
  401636:	8b 44 24 24          	mov    0x24(%rsp),%eax
  40163a:	69 c0 07 dc 00 00    	imul   $0xdc07,%eax,%eax
  401640:	89 44 24 24          	mov    %eax,0x24(%rsp)
  401644:	8b 44 24 20          	mov    0x20(%rsp),%eax
  401648:	69 c0 a7 23 00 00    	imul   $0x23a7,%eax,%eax
  40164e:	89 44 24 20          	mov    %eax,0x20(%rsp)
  401652:	8b 44 24 04          	mov    0x4(%rsp),%eax
  401656:	69 c0 19 f2 00 00    	imul   $0xf219,%eax,%eax
  40165c:	89 44 24 04          	mov    %eax,0x4(%rsp)
  401660:	8b 44 24 08          	mov    0x8(%rsp),%eax
  401664:	69 c0 12 93 00 00    	imul   $0x9312,%eax,%eax
  40166a:	89 44 24 08          	mov    %eax,0x8(%rsp)
  40166e:	8b 44 24 10          	mov    0x10(%rsp),%eax
  401672:	69 c0 c2 6a 00 00    	imul   $0x6ac2,%eax,%eax
  401678:	89 44 24 10          	mov    %eax,0x10(%rsp)
  40167c:	8b 44 24 04          	mov    0x4(%rsp),%eax
  401680:	69 c0 64 a6 00 00    	imul   $0xa664,%eax,%eax
  401686:	89 44 24 04          	mov    %eax,0x4(%rsp)
  40168a:	8b 44 24 18          	mov    0x18(%rsp),%eax
  40168e:	69 c0 ba 25 00 00    	imul   $0x25ba,%eax,%eax
  401694:	89 44 24 18          	mov    %eax,0x18(%rsp)
  401698:	8b 44 24 18          	mov    0x18(%rsp),%eax
  40169c:	69 c0 cb d7 00 00    	imul   $0xd7cb,%eax,%eax
  4016a2:	89 44 24 18          	mov    %eax,0x18(%rsp)
  4016a6:	8b 44 24 1c          	mov    0x1c(%rsp),%eax
  4016aa:	69 c0 71 9e 00 00    	imul   $0x9e71,%eax,%eax
  4016b0:	89 44 24 1c          	mov    %eax,0x1c(%rsp)
  4016b4:	8b 44 24 14          	mov    0x14(%rsp),%eax
  4016b8:	69 c0 9e 87 00 00    	imul   $0x879e,%eax,%eax
  4016be:	89 44 24 14          	mov    %eax,0x14(%rsp)
  4016c2:	8b 44 24 1c          	mov    0x1c(%rsp),%eax
  4016c6:	69 c0 28 bf 00 00    	imul   $0xbf28,%eax,%eax
  4016cc:	89 44 24 1c          	mov    %eax,0x1c(%rsp)
  4016d0:	8b 44 24 0c          	mov    0xc(%rsp),%eax
  4016d4:	69 c0 d5 dd 00 00    	imul   $0xddd5,%eax,%eax
  4016da:	89 44 24 0c          	mov    %eax,0xc(%rsp)
  4016de:	8b 44 24 0c          	mov    0xc(%rsp),%eax
  4016e2:	69 c0 32 4e 00 00    	imul   $0x4e32,%eax,%eax
  4016e8:	89 44 24 0c          	mov    %eax,0xc(%rsp)
  4016ec:	8b 44 24 18          	mov    0x18(%rsp),%eax
  4016f0:	69 c0 e2 5b 00 00    	imul   $0x5be2,%eax,%eax
  4016f6:	89 44 24 18          	mov    %eax,0x18(%rsp)
  4016fa:	8b 44 24 10          	mov    0x10(%rsp),%eax
  4016fe:	69 c0 42 2d 00 00    	imul   $0x2d42,%eax,%eax
  401704:	89 44 24 10          	mov    %eax,0x10(%rsp)
  401708:	8b 44 24 20          	mov    0x20(%rsp),%eax
  40170c:	69 c0 5c 24 00 00    	imul   $0x245c,%eax,%eax
  401712:	89 44 24 20          	mov    %eax,0x20(%rsp)
  401716:	8b 44 24 14          	mov    0x14(%rsp),%eax
  40171a:	69 c0 7e 15 00 00    	imul   $0x157e,%eax,%eax
  401720:	89 44 24 14          	mov    %eax,0x14(%rsp)
  401724:	8b 44 24 1c          	mov    0x1c(%rsp),%eax
  401728:	69 c0 e6 fd 00 00    	imul   $0xfde6,%eax,%eax
  40172e:	89 44 24 1c          	mov    %eax,0x1c(%rsp)
  401732:	8b 44 24 18          	mov    0x18(%rsp),%eax
  401736:	69 c0 f5 f6 00 00    	imul   $0xf6f5,%eax,%eax
  40173c:	89 44 24 18          	mov    %eax,0x18(%rsp)
  401740:	8b 44 24 0c          	mov    0xc(%rsp),%eax
  401744:	69 c0 af 60 00 00    	imul   $0x60af,%eax,%eax
  40174a:	89 44 24 0c          	mov    %eax,0xc(%rsp)
  40174e:	8b 44 24 04          	mov    0x4(%rsp),%eax
  401752:	69 c0 59 f2 00 00    	imul   $0xf259,%eax,%eax
  401758:	89 44 24 04          	mov    %eax,0x4(%rsp)
  40175c:	8b 44 24 04          	mov    0x4(%rsp),%eax
  401760:	69 c0 e8 bb 00 00    	imul   $0xbbe8,%eax,%eax
  401766:	89 44 24 04          	mov    %eax,0x4(%rsp)
  40176a:	8b 04 24             	mov    (%rsp),%eax
  40176d:	69 c0 cb b0 00 00    	imul   $0xb0cb,%eax,%eax
  401773:	89 04 24             	mov    %eax,(%rsp)
  401776:	8b 44 24 24          	mov    0x24(%rsp),%eax
  40177a:	69 c0 b2 7f 00 00    	imul   $0x7fb2,%eax,%eax
  401780:	89 44 24 24          	mov    %eax,0x24(%rsp)
  401784:	8b 44 24 20          	mov    0x20(%rsp),%eax
  401788:	69 c0 c9 48 00 00    	imul   $0x48c9,%eax,%eax
  40178e:	89 44 24 20          	mov    %eax,0x20(%rsp)
  401792:	8b 04 24             	mov    (%rsp),%eax
  401795:	69 c0 08 ce 00 00    	imul   $0xce08,%eax,%eax
  40179b:	89 04 24             	mov    %eax,(%rsp)
  40179e:	8b 44 24 14          	mov    0x14(%rsp),%eax
  4017a2:	69 c0 fc b3 00 00    	imul   $0xb3fc,%eax,%eax
  4017a8:	89 44 24 14          	mov    %eax,0x14(%rsp)
  4017ac:	8b 44 24 20          	mov    0x20(%rsp),%eax
  4017b0:	69 c0 c5 03 00 00    	imul   $0x3c5,%eax,%eax
  4017b6:	89 44 24 20          	mov    %eax,0x20(%rsp)
  4017ba:	8b 44 24 20          	mov    0x20(%rsp),%eax
  4017be:	69 c0 78 fc 00 00    	imul   $0xfc78,%eax,%eax
  4017c4:	89 44 24 20          	mov    %eax,0x20(%rsp)
  4017c8:	8b 44 24 08          	mov    0x8(%rsp),%eax
  4017cc:	69 c0 0a 3b 00 00    	imul   $0x3b0a,%eax,%eax
  4017d2:	89 44 24 08          	mov    %eax,0x8(%rsp)
  4017d6:	8b 44 24 20          	mov    0x20(%rsp),%eax
  4017da:	69 c0 b0 1d 00 00    	imul   $0x1db0,%eax,%eax
  4017e0:	89 44 24 20          	mov    %eax,0x20(%rsp)
  4017e4:	8b 44 24 20          	mov    0x20(%rsp),%eax
  4017e8:	69 c0 04 33 00 00    	imul   $0x3304,%eax,%eax
  4017ee:	89 44 24 20          	mov    %eax,0x20(%rsp)
  4017f2:	8b 44 24 0c          	mov    0xc(%rsp),%eax
  4017f6:	69 c0 6a a7 00 00    	imul   $0xa76a,%eax,%eax
  4017fc:	89 44 24 0c          	mov    %eax,0xc(%rsp)
  401800:	8b 44 24 04          	mov    0x4(%rsp),%eax
  401804:	69 c0 c5 3a 00 00    	imul   $0x3ac5,%eax,%eax
  40180a:	89 44 24 04          	mov    %eax,0x4(%rsp)
  40180e:	8b 44 24 24          	mov    0x24(%rsp),%eax
  401812:	69 c0 e3 c1 00 00    	imul   $0xc1e3,%eax,%eax
  401818:	89 44 24 24          	mov    %eax,0x24(%rsp)
  40181c:	8b 44 24 10          	mov    0x10(%rsp),%eax
  401820:	6b c0 16             	imul   $0x16,%eax,%eax
  401823:	89 44 24 10          	mov    %eax,0x10(%rsp)
  401827:	8b 44 24 10          	mov    0x10(%rsp),%eax
  40182b:	69 c0 88 a2 00 00    	imul   $0xa288,%eax,%eax
  401831:	89 44 24 10          	mov    %eax,0x10(%rsp)
  401835:	8b 44 24 10          	mov    0x10(%rsp),%eax
  401839:	69 c0 50 cc 00 00    	imul   $0xcc50,%eax,%eax
  40183f:	89 44 24 10          	mov    %eax,0x10(%rsp)
  401843:	8b 44 24 18          	mov    0x18(%rsp),%eax
  401847:	69 c0 b2 4f 00 00    	imul   $0x4fb2,%eax,%eax
  40184d:	89 44 24 18          	mov    %eax,0x18(%rsp)
  401851:	8b 44 24 18          	mov    0x18(%rsp),%eax
  401855:	69 c0 91 a2 00 00    	imul   $0xa291,%eax,%eax
  40185b:	89 44 24 18          	mov    %eax,0x18(%rsp)
  40185f:	8b 44 24 24          	mov    0x24(%rsp),%eax
  401863:	69 c0 52 53 00 00    	imul   $0x5352,%eax,%eax
  401869:	89 44 24 24          	mov    %eax,0x24(%rsp)
  40186d:	8b 44 24 10          	mov    0x10(%rsp),%eax
  401871:	69 c0 6e a0 00 00    	imul   $0xa06e,%eax,%eax
  401877:	89 44 24 10          	mov    %eax,0x10(%rsp)
  40187b:	8b 44 24 0c          	mov    0xc(%rsp),%eax
  40187f:	69 c0 76 1c 00 00    	imul   $0x1c76,%eax,%eax
  401885:	89 44 24 0c          	mov    %eax,0xc(%rsp)
  401889:	8b 44 24 10          	mov    0x10(%rsp),%eax
  40188d:	69 c0 7c 09 00 00    	imul   $0x97c,%eax,%eax
  401893:	89 44 24 10          	mov    %eax,0x10(%rsp)
  401897:	ba 00 00 00 00       	mov    $0x0,%edx
  40189c:	b8 00 00 00 00       	mov    $0x0,%eax
  4018a1:	eb 0a                	jmp    4018ad <scramble+0x51e>
  4018a3:	89 d1                	mov    %edx,%ecx
  4018a5:	8b 0c 8c             	mov    (%rsp,%rcx,4),%ecx
  4018a8:	01 c8                	add    %ecx,%eax
  4018aa:	83 c2 01             	add    $0x1,%edx
  4018ad:	83 fa 09             	cmp    $0x9,%edx
  4018b0:	76 f1                	jbe    4018a3 <scramble+0x514>
  4018b2:	48 8b 74 24 28       	mov    0x28(%rsp),%rsi
  4018b7:	64 48 33 34 25 28 00 	xor    %fs:0x28,%rsi
  4018be:	00 00 
  4018c0:	74 05                	je     4018c7 <scramble+0x538>
  4018c2:	e8 29 f4 ff ff       	callq  400cf0 <__stack_chk_fail@plt>
  4018c7:	48 83 c4 38          	add    $0x38,%rsp
  4018cb:	c3                   	retq   

00000000004018cc <getbuf>:
  4018cc:	48 83 ec 18          	sub    $0x18,%rsp
  4018d0:	48 89 e7             	mov    %rsp,%rdi
  4018d3:	e8 7e 02 00 00       	callq  401b56 <Gets>
  4018d8:	b8 01 00 00 00       	mov    $0x1,%eax
  4018dd:	48 83 c4 18          	add    $0x18,%rsp
  4018e1:	c3                   	retq   

00000000004018e2 <touch1>:
  4018e2:	48 83 ec 08          	sub    $0x8,%rsp
  4018e6:	c7 05 2c 3c 20 00 01 	movl   $0x1,0x203c2c(%rip)        # 60551c <vlevel>
  4018ed:	00 00 00 
  4018f0:	bf 5d 33 40 00       	mov    $0x40335d,%edi
  4018f5:	e8 d6 f3 ff ff       	callq  400cd0 <puts@plt>
  4018fa:	bf 01 00 00 00       	mov    $0x1,%edi
  4018ff:	e8 97 04 00 00       	callq  401d9b <validate>
  401904:	bf 00 00 00 00       	mov    $0x0,%edi
  401909:	e8 42 f5 ff ff       	callq  400e50 <exit@plt>

000000000040190e <touch2>:
  40190e:	48 83 ec 08          	sub    $0x8,%rsp
  401912:	89 fa                	mov    %edi,%edx
  401914:	c7 05 fe 3b 20 00 02 	movl   $0x2,0x203bfe(%rip)        # 60551c <vlevel>
  40191b:	00 00 00 
  40191e:	39 3d 00 3c 20 00    	cmp    %edi,0x203c00(%rip)        # 605524 <cookie>
  401924:	75 20                	jne    401946 <touch2+0x38>
  401926:	be 80 33 40 00       	mov    $0x403380,%esi
  40192b:	bf 01 00 00 00       	mov    $0x1,%edi
  401930:	b8 00 00 00 00       	mov    $0x0,%eax
  401935:	e8 c6 f4 ff ff       	callq  400e00 <__printf_chk@plt>
  40193a:	bf 02 00 00 00       	mov    $0x2,%edi
  40193f:	e8 57 04 00 00       	callq  401d9b <validate>
  401944:	eb 1e                	jmp    401964 <touch2+0x56>
  401946:	be a8 33 40 00       	mov    $0x4033a8,%esi
  40194b:	bf 01 00 00 00       	mov    $0x1,%edi
  401950:	b8 00 00 00 00       	mov    $0x0,%eax
  401955:	e8 a6 f4 ff ff       	callq  400e00 <__printf_chk@plt>
  40195a:	bf 02 00 00 00       	mov    $0x2,%edi
  40195f:	e8 13 05 00 00       	callq  401e77 <fail>
  401964:	bf 00 00 00 00       	mov    $0x0,%edi
  401969:	e8 e2 f4 ff ff       	callq  400e50 <exit@plt>

000000000040196e <hexmatch>:
  40196e:	41 54                	push   %r12
  401970:	55                   	push   %rbp
  401971:	53                   	push   %rbx
  401972:	48 83 c4 80          	add    $0xffffffffffffff80,%rsp
  401976:	89 fd                	mov    %edi,%ebp
  401978:	48 89 f3             	mov    %rsi,%rbx
  40197b:	64 48 8b 04 25 28 00 	mov    %fs:0x28,%rax
  401982:	00 00 
  401984:	48 89 44 24 78       	mov    %rax,0x78(%rsp)
  401989:	31 c0                	xor    %eax,%eax
  40198b:	e8 30 f4 ff ff       	callq  400dc0 <random@plt>
  401990:	48 89 c1             	mov    %rax,%rcx
  401993:	48 ba 0b d7 a3 70 3d 	movabs $0xa3d70a3d70a3d70b,%rdx
  40199a:	0a d7 a3 
  40199d:	48 f7 ea             	imul   %rdx
  4019a0:	48 01 ca             	add    %rcx,%rdx
  4019a3:	48 c1 fa 06          	sar    $0x6,%rdx
  4019a7:	48 89 c8             	mov    %rcx,%rax
  4019aa:	48 c1 f8 3f          	sar    $0x3f,%rax
  4019ae:	48 29 c2             	sub    %rax,%rdx
  4019b1:	48 8d 04 92          	lea    (%rdx,%rdx,4),%rax
  4019b5:	48 8d 14 80          	lea    (%rax,%rax,4),%rdx
  4019b9:	48 8d 04 95 00 00 00 	lea    0x0(,%rdx,4),%rax
  4019c0:	00 
  4019c1:	48 29 c1             	sub    %rax,%rcx
  4019c4:	4c 8d 24 0c          	lea    (%rsp,%rcx,1),%r12
  4019c8:	41 89 e8             	mov    %ebp,%r8d
  4019cb:	b9 7a 33 40 00       	mov    $0x40337a,%ecx
  4019d0:	48 c7 c2 ff ff ff ff 	mov    $0xffffffffffffffff,%rdx
  4019d7:	be 01 00 00 00       	mov    $0x1,%esi
  4019dc:	4c 89 e7             	mov    %r12,%rdi
  4019df:	b8 00 00 00 00       	mov    $0x0,%eax
  4019e4:	e8 97 f4 ff ff       	callq  400e80 <__sprintf_chk@plt>
  4019e9:	ba 09 00 00 00       	mov    $0x9,%edx
  4019ee:	4c 89 e6             	mov    %r12,%rsi
  4019f1:	48 89 df             	mov    %rbx,%rdi
  4019f4:	e8 b7 f2 ff ff       	callq  400cb0 <strncmp@plt>
  4019f9:	85 c0                	test   %eax,%eax
  4019fb:	0f 94 c0             	sete   %al
  4019fe:	48 8b 5c 24 78       	mov    0x78(%rsp),%rbx
  401a03:	64 48 33 1c 25 28 00 	xor    %fs:0x28,%rbx
  401a0a:	00 00 
  401a0c:	74 05                	je     401a13 <hexmatch+0xa5>
  401a0e:	e8 dd f2 ff ff       	callq  400cf0 <__stack_chk_fail@plt>
  401a13:	0f b6 c0             	movzbl %al,%eax
  401a16:	48 83 ec 80          	sub    $0xffffffffffffff80,%rsp
  401a1a:	5b                   	pop    %rbx
  401a1b:	5d                   	pop    %rbp
  401a1c:	41 5c                	pop    %r12
  401a1e:	c3                   	retq   

0000000000401a1f <touch3>:
  401a1f:	53                   	push   %rbx
  401a20:	48 89 fb             	mov    %rdi,%rbx
  401a23:	c7 05 ef 3a 20 00 03 	movl   $0x3,0x203aef(%rip)        # 60551c <vlevel>
  401a2a:	00 00 00 
  401a2d:	48 89 fe             	mov    %rdi,%rsi
  401a30:	8b 3d ee 3a 20 00    	mov    0x203aee(%rip),%edi        # 605524 <cookie>
  401a36:	e8 33 ff ff ff       	callq  40196e <hexmatch>
  401a3b:	85 c0                	test   %eax,%eax
  401a3d:	74 23                	je     401a62 <touch3+0x43>
  401a3f:	48 89 da             	mov    %rbx,%rdx
  401a42:	be d0 33 40 00       	mov    $0x4033d0,%esi
  401a47:	bf 01 00 00 00       	mov    $0x1,%edi
  401a4c:	b8 00 00 00 00       	mov    $0x0,%eax
  401a51:	e8 aa f3 ff ff       	callq  400e00 <__printf_chk@plt>
  401a56:	bf 03 00 00 00       	mov    $0x3,%edi
  401a5b:	e8 3b 03 00 00       	callq  401d9b <validate>
  401a60:	eb 21                	jmp    401a83 <touch3+0x64>
  401a62:	48 89 da             	mov    %rbx,%rdx
  401a65:	be f8 33 40 00       	mov    $0x4033f8,%esi
  401a6a:	bf 01 00 00 00       	mov    $0x1,%edi
  401a6f:	b8 00 00 00 00       	mov    $0x0,%eax
  401a74:	e8 87 f3 ff ff       	callq  400e00 <__printf_chk@plt>
  401a79:	bf 03 00 00 00       	mov    $0x3,%edi
  401a7e:	e8 f4 03 00 00       	callq  401e77 <fail>
  401a83:	bf 00 00 00 00       	mov    $0x0,%edi
  401a88:	e8 c3 f3 ff ff       	callq  400e50 <exit@plt>

0000000000401a8d <test>:
  401a8d:	48 83 ec 08          	sub    $0x8,%rsp
  401a91:	b8 00 00 00 00       	mov    $0x0,%eax
  401a96:	e8 31 fe ff ff       	callq  4018cc <getbuf>
  401a9b:	89 c2                	mov    %eax,%edx
  401a9d:	be 20 34 40 00       	mov    $0x403420,%esi
  401aa2:	bf 01 00 00 00       	mov    $0x1,%edi
  401aa7:	b8 00 00 00 00       	mov    $0x0,%eax
  401aac:	e8 4f f3 ff ff       	callq  400e00 <__printf_chk@plt>
  401ab1:	48 83 c4 08          	add    $0x8,%rsp
  401ab5:	c3                   	retq   

0000000000401ab6 <save_char>:
  401ab6:	8b 05 88 46 20 00    	mov    0x204688(%rip),%eax        # 606144 <gets_cnt>
  401abc:	3d ff 03 00 00       	cmp    $0x3ff,%eax
  401ac1:	7f 49                	jg     401b0c <save_char+0x56>
  401ac3:	8d 14 40             	lea    (%rax,%rax,2),%edx
  401ac6:	89 f9                	mov    %edi,%ecx
  401ac8:	c0 e9 04             	shr    $0x4,%cl
  401acb:	83 e1 0f             	and    $0xf,%ecx
  401ace:	0f b6 b1 40 37 40 00 	movzbl 0x403740(%rcx),%esi
  401ad5:	48 63 ca             	movslq %edx,%rcx
  401ad8:	40 88 b1 40 55 60 00 	mov    %sil,0x605540(%rcx)
  401adf:	8d 4a 01             	lea    0x1(%rdx),%ecx
  401ae2:	83 e7 0f             	and    $0xf,%edi
  401ae5:	0f b6 b7 40 37 40 00 	movzbl 0x403740(%rdi),%esi
  401aec:	48 63 c9             	movslq %ecx,%rcx
  401aef:	40 88 b1 40 55 60 00 	mov    %sil,0x605540(%rcx)
  401af6:	83 c2 02             	add    $0x2,%edx
  401af9:	48 63 d2             	movslq %edx,%rdx
  401afc:	c6 82 40 55 60 00 20 	movb   $0x20,0x605540(%rdx)
  401b03:	83 c0 01             	add    $0x1,%eax
  401b06:	89 05 38 46 20 00    	mov    %eax,0x204638(%rip)        # 606144 <gets_cnt>
  401b0c:	f3 c3                	repz retq 

0000000000401b0e <save_term>:
  401b0e:	8b 05 30 46 20 00    	mov    0x204630(%rip),%eax        # 606144 <gets_cnt>
  401b14:	8d 04 40             	lea    (%rax,%rax,2),%eax
  401b17:	48 98                	cltq   
  401b19:	c6 80 40 55 60 00 00 	movb   $0x0,0x605540(%rax)
  401b20:	c3                   	retq   

0000000000401b21 <check_fail>:
  401b21:	48 83 ec 08          	sub    $0x8,%rsp
  401b25:	0f be 15 1c 46 20 00 	movsbl 0x20461c(%rip),%edx        # 606148 <target_prefix>
  401b2c:	41 b8 40 55 60 00    	mov    $0x605540,%r8d
  401b32:	8b 0d e0 39 20 00    	mov    0x2039e0(%rip),%ecx        # 605518 <check_level>
  401b38:	be 43 34 40 00       	mov    $0x403443,%esi
  401b3d:	bf 01 00 00 00       	mov    $0x1,%edi
  401b42:	b8 00 00 00 00       	mov    $0x0,%eax
  401b47:	e8 b4 f2 ff ff       	callq  400e00 <__printf_chk@plt>
  401b4c:	bf 01 00 00 00       	mov    $0x1,%edi
  401b51:	e8 fa f2 ff ff       	callq  400e50 <exit@plt>

0000000000401b56 <Gets>:
  401b56:	41 54                	push   %r12
  401b58:	55                   	push   %rbp
  401b59:	53                   	push   %rbx
  401b5a:	49 89 fc             	mov    %rdi,%r12
  401b5d:	c7 05 dd 45 20 00 00 	movl   $0x0,0x2045dd(%rip)        # 606144 <gets_cnt>
  401b64:	00 00 00 
  401b67:	48 89 fb             	mov    %rdi,%rbx
  401b6a:	eb 11                	jmp    401b7d <Gets+0x27>
  401b6c:	48 8d 6b 01          	lea    0x1(%rbx),%rbp
  401b70:	88 03                	mov    %al,(%rbx)
  401b72:	0f b6 f8             	movzbl %al,%edi
  401b75:	e8 3c ff ff ff       	callq  401ab6 <save_char>
  401b7a:	48 89 eb             	mov    %rbp,%rbx
  401b7d:	48 8b 3d 8c 39 20 00 	mov    0x20398c(%rip),%rdi        # 605510 <infile>
  401b84:	e8 47 f2 ff ff       	callq  400dd0 <_IO_getc@plt>
  401b89:	83 f8 ff             	cmp    $0xffffffff,%eax
  401b8c:	74 05                	je     401b93 <Gets+0x3d>
  401b8e:	83 f8 0a             	cmp    $0xa,%eax
  401b91:	75 d9                	jne    401b6c <Gets+0x16>
  401b93:	c6 03 00             	movb   $0x0,(%rbx)
  401b96:	b8 00 00 00 00       	mov    $0x0,%eax
  401b9b:	e8 6e ff ff ff       	callq  401b0e <save_term>
  401ba0:	4c 89 e0             	mov    %r12,%rax
  401ba3:	5b                   	pop    %rbx
  401ba4:	5d                   	pop    %rbp
  401ba5:	41 5c                	pop    %r12
  401ba7:	c3                   	retq   

0000000000401ba8 <notify_server>:
  401ba8:	53                   	push   %rbx
  401ba9:	48 81 ec 10 40 00 00 	sub    $0x4010,%rsp
  401bb0:	64 48 8b 04 25 28 00 	mov    %fs:0x28,%rax
  401bb7:	00 00 
  401bb9:	48 89 84 24 08 40 00 	mov    %rax,0x4008(%rsp)
  401bc0:	00 
  401bc1:	31 c0                	xor    %eax,%eax
  401bc3:	83 3d 5e 39 20 00 00 	cmpl   $0x0,0x20395e(%rip)        # 605528 <is_checker>
  401bca:	0f 85 aa 01 00 00    	jne    401d7a <notify_server+0x1d2>
  401bd0:	89 fb                	mov    %edi,%ebx
  401bd2:	8b 05 6c 45 20 00    	mov    0x20456c(%rip),%eax        # 606144 <gets_cnt>
  401bd8:	83 c0 64             	add    $0x64,%eax
  401bdb:	3d 00 20 00 00       	cmp    $0x2000,%eax
  401be0:	7e 1e                	jle    401c00 <notify_server+0x58>
  401be2:	be 78 35 40 00       	mov    $0x403578,%esi
  401be7:	bf 01 00 00 00       	mov    $0x1,%edi
  401bec:	b8 00 00 00 00       	mov    $0x0,%eax
  401bf1:	e8 0a f2 ff ff       	callq  400e00 <__printf_chk@plt>
  401bf6:	bf 01 00 00 00       	mov    $0x1,%edi
  401bfb:	e8 50 f2 ff ff       	callq  400e50 <exit@plt>
  401c00:	0f be 05 41 45 20 00 	movsbl 0x204541(%rip),%eax        # 606148 <target_prefix>
  401c07:	83 3d 9a 38 20 00 00 	cmpl   $0x0,0x20389a(%rip)        # 6054a8 <notify>
  401c0e:	74 08                	je     401c18 <notify_server+0x70>
  401c10:	8b 15 0a 39 20 00    	mov    0x20390a(%rip),%edx        # 605520 <authkey>
  401c16:	eb 05                	jmp    401c1d <notify_server+0x75>
  401c18:	ba ff ff ff ff       	mov    $0xffffffff,%edx
  401c1d:	85 db                	test   %ebx,%ebx
  401c1f:	74 08                	je     401c29 <notify_server+0x81>
  401c21:	41 b9 59 34 40 00    	mov    $0x403459,%r9d
  401c27:	eb 06                	jmp    401c2f <notify_server+0x87>
  401c29:	41 b9 5e 34 40 00    	mov    $0x40345e,%r9d
  401c2f:	68 40 55 60 00       	pushq  $0x605540
  401c34:	56                   	push   %rsi
  401c35:	50                   	push   %rax
  401c36:	52                   	push   %rdx
  401c37:	44 8b 05 2a 35 20 00 	mov    0x20352a(%rip),%r8d        # 605168 <target_id>
  401c3e:	b9 63 34 40 00       	mov    $0x403463,%ecx
  401c43:	ba 00 20 00 00       	mov    $0x2000,%edx
  401c48:	be 01 00 00 00       	mov    $0x1,%esi
  401c4d:	48 8d 7c 24 20       	lea    0x20(%rsp),%rdi
  401c52:	b8 00 00 00 00       	mov    $0x0,%eax
  401c57:	e8 24 f2 ff ff       	callq  400e80 <__sprintf_chk@plt>
  401c5c:	48 83 c4 20          	add    $0x20,%rsp
  401c60:	83 3d 41 38 20 00 00 	cmpl   $0x0,0x203841(%rip)        # 6054a8 <notify>
  401c67:	0f 84 81 00 00 00    	je     401cee <notify_server+0x146>
  401c6d:	85 db                	test   %ebx,%ebx
  401c6f:	74 6e                	je     401cdf <notify_server+0x137>
  401c71:	4c 8d 8c 24 00 20 00 	lea    0x2000(%rsp),%r9
  401c78:	00 
  401c79:	41 b8 00 00 00 00    	mov    $0x0,%r8d
  401c7f:	48 89 e1             	mov    %rsp,%rcx
  401c82:	48 8b 15 e7 34 20 00 	mov    0x2034e7(%rip),%rdx        # 605170 <lab>
  401c89:	48 8b 35 e8 34 20 00 	mov    0x2034e8(%rip),%rsi        # 605178 <course>
  401c90:	48 8b 3d c9 34 20 00 	mov    0x2034c9(%rip),%rdi        # 605160 <user_id>
  401c97:	e8 09 11 00 00       	callq  402da5 <driver_post>
  401c9c:	85 c0                	test   %eax,%eax
  401c9e:	79 26                	jns    401cc6 <notify_server+0x11e>
  401ca0:	48 8d 94 24 00 20 00 	lea    0x2000(%rsp),%rdx
  401ca7:	00 
  401ca8:	be 7f 34 40 00       	mov    $0x40347f,%esi
  401cad:	bf 01 00 00 00       	mov    $0x1,%edi
  401cb2:	b8 00 00 00 00       	mov    $0x0,%eax
  401cb7:	e8 44 f1 ff ff       	callq  400e00 <__printf_chk@plt>
  401cbc:	bf 01 00 00 00       	mov    $0x1,%edi
  401cc1:	e8 8a f1 ff ff       	callq  400e50 <exit@plt>
  401cc6:	bf a8 35 40 00       	mov    $0x4035a8,%edi
  401ccb:	e8 00 f0 ff ff       	callq  400cd0 <puts@plt>
  401cd0:	bf 8b 34 40 00       	mov    $0x40348b,%edi
  401cd5:	e8 f6 ef ff ff       	callq  400cd0 <puts@plt>
  401cda:	e9 9b 00 00 00       	jmpq   401d7a <notify_server+0x1d2>
  401cdf:	bf 95 34 40 00       	mov    $0x403495,%edi
  401ce4:	e8 e7 ef ff ff       	callq  400cd0 <puts@plt>
  401ce9:	e9 8c 00 00 00       	jmpq   401d7a <notify_server+0x1d2>
  401cee:	85 db                	test   %ebx,%ebx
  401cf0:	74 07                	je     401cf9 <notify_server+0x151>
  401cf2:	ba 59 34 40 00       	mov    $0x403459,%edx
  401cf7:	eb 05                	jmp    401cfe <notify_server+0x156>
  401cf9:	ba 5e 34 40 00       	mov    $0x40345e,%edx
  401cfe:	be e0 35 40 00       	mov    $0x4035e0,%esi
  401d03:	bf 01 00 00 00       	mov    $0x1,%edi
  401d08:	b8 00 00 00 00       	mov    $0x0,%eax
  401d0d:	e8 ee f0 ff ff       	callq  400e00 <__printf_chk@plt>
  401d12:	48 8b 15 47 34 20 00 	mov    0x203447(%rip),%rdx        # 605160 <user_id>
  401d19:	be 9c 34 40 00       	mov    $0x40349c,%esi
  401d1e:	bf 01 00 00 00       	mov    $0x1,%edi
  401d23:	b8 00 00 00 00       	mov    $0x0,%eax
  401d28:	e8 d3 f0 ff ff       	callq  400e00 <__printf_chk@plt>
  401d2d:	48 8b 15 44 34 20 00 	mov    0x203444(%rip),%rdx        # 605178 <course>
  401d34:	be a9 34 40 00       	mov    $0x4034a9,%esi
  401d39:	bf 01 00 00 00       	mov    $0x1,%edi
  401d3e:	b8 00 00 00 00       	mov    $0x0,%eax
  401d43:	e8 b8 f0 ff ff       	callq  400e00 <__printf_chk@plt>
  401d48:	48 8b 15 21 34 20 00 	mov    0x203421(%rip),%rdx        # 605170 <lab>
  401d4f:	be b5 34 40 00       	mov    $0x4034b5,%esi
  401d54:	bf 01 00 00 00       	mov    $0x1,%edi
  401d59:	b8 00 00 00 00       	mov    $0x0,%eax
  401d5e:	e8 9d f0 ff ff       	callq  400e00 <__printf_chk@plt>
  401d63:	48 89 e2             	mov    %rsp,%rdx
  401d66:	be be 34 40 00       	mov    $0x4034be,%esi
  401d6b:	bf 01 00 00 00       	mov    $0x1,%edi
  401d70:	b8 00 00 00 00       	mov    $0x0,%eax
  401d75:	e8 86 f0 ff ff       	callq  400e00 <__printf_chk@plt>
  401d7a:	48 8b 84 24 08 40 00 	mov    0x4008(%rsp),%rax
  401d81:	00 
  401d82:	64 48 33 04 25 28 00 	xor    %fs:0x28,%rax
  401d89:	00 00 
  401d8b:	74 05                	je     401d92 <notify_server+0x1ea>
  401d8d:	e8 5e ef ff ff       	callq  400cf0 <__stack_chk_fail@plt>
  401d92:	48 81 c4 10 40 00 00 	add    $0x4010,%rsp
  401d99:	5b                   	pop    %rbx
  401d9a:	c3                   	retq   

0000000000401d9b <validate>:
  401d9b:	4c 8d 54 24 08       	lea    0x8(%rsp),%r10
  401da0:	48 83 e4 f0          	and    $0xfffffffffffffff0,%rsp
  401da4:	41 ff 72 f8          	pushq  -0x8(%r10)
  401da8:	55                   	push   %rbp
  401da9:	48 89 e5             	mov    %rsp,%rbp
  401dac:	41 52                	push   %r10
  401dae:	53                   	push   %rbx
  401daf:	89 fb                	mov    %edi,%ebx
  401db1:	83 3d 70 37 20 00 00 	cmpl   $0x0,0x203770(%rip)        # 605528 <is_checker>
  401db8:	74 6b                	je     401e25 <validate+0x8a>
  401dba:	39 3d 5c 37 20 00    	cmp    %edi,0x20375c(%rip)        # 60551c <vlevel>
  401dc0:	74 14                	je     401dd6 <validate+0x3b>
  401dc2:	bf ca 34 40 00       	mov    $0x4034ca,%edi
  401dc7:	e8 04 ef ff ff       	callq  400cd0 <puts@plt>
  401dcc:	b8 00 00 00 00       	mov    $0x0,%eax
  401dd1:	e8 4b fd ff ff       	callq  401b21 <check_fail>
  401dd6:	8b 15 3c 37 20 00    	mov    0x20373c(%rip),%edx        # 605518 <check_level>
  401ddc:	39 d7                	cmp    %edx,%edi
  401dde:	74 20                	je     401e00 <validate+0x65>
  401de0:	89 f9                	mov    %edi,%ecx
  401de2:	be 08 36 40 00       	mov    $0x403608,%esi
  401de7:	bf 01 00 00 00       	mov    $0x1,%edi
  401dec:	b8 00 00 00 00       	mov    $0x0,%eax
  401df1:	e8 0a f0 ff ff       	callq  400e00 <__printf_chk@plt>
  401df6:	b8 00 00 00 00       	mov    $0x0,%eax
  401dfb:	e8 21 fd ff ff       	callq  401b21 <check_fail>
  401e00:	0f be 15 41 43 20 00 	movsbl 0x204341(%rip),%edx        # 606148 <target_prefix>
  401e07:	41 b8 40 55 60 00    	mov    $0x605540,%r8d
  401e0d:	89 f9                	mov    %edi,%ecx
  401e0f:	be e8 34 40 00       	mov    $0x4034e8,%esi
  401e14:	bf 01 00 00 00       	mov    $0x1,%edi
  401e19:	b8 00 00 00 00       	mov    $0x0,%eax
  401e1e:	e8 dd ef ff ff       	callq  400e00 <__printf_chk@plt>
  401e23:	eb 49                	jmp    401e6e <validate+0xd3>
  401e25:	3b 3d f1 36 20 00    	cmp    0x2036f1(%rip),%edi        # 60551c <vlevel>
  401e2b:	74 18                	je     401e45 <validate+0xaa>
  401e2d:	bf ca 34 40 00       	mov    $0x4034ca,%edi
  401e32:	e8 99 ee ff ff       	callq  400cd0 <puts@plt>
  401e37:	89 de                	mov    %ebx,%esi
  401e39:	bf 00 00 00 00       	mov    $0x0,%edi
  401e3e:	e8 65 fd ff ff       	callq  401ba8 <notify_server>
  401e43:	eb 29                	jmp    401e6e <validate+0xd3>
  401e45:	0f be 0d fc 42 20 00 	movsbl 0x2042fc(%rip),%ecx        # 606148 <target_prefix>
  401e4c:	89 fa                	mov    %edi,%edx
  401e4e:	be 30 36 40 00       	mov    $0x403630,%esi
  401e53:	bf 01 00 00 00       	mov    $0x1,%edi
  401e58:	b8 00 00 00 00       	mov    $0x0,%eax
  401e5d:	e8 9e ef ff ff       	callq  400e00 <__printf_chk@plt>
  401e62:	89 de                	mov    %ebx,%esi
  401e64:	bf 01 00 00 00       	mov    $0x1,%edi
  401e69:	e8 3a fd ff ff       	callq  401ba8 <notify_server>
  401e6e:	5b                   	pop    %rbx
  401e6f:	41 5a                	pop    %r10
  401e71:	5d                   	pop    %rbp
  401e72:	49 8d 62 f8          	lea    -0x8(%r10),%rsp
  401e76:	c3                   	retq   

0000000000401e77 <fail>:
  401e77:	48 83 ec 08          	sub    $0x8,%rsp
  401e7b:	83 3d a6 36 20 00 00 	cmpl   $0x0,0x2036a6(%rip)        # 605528 <is_checker>
  401e82:	74 0a                	je     401e8e <fail+0x17>
  401e84:	b8 00 00 00 00       	mov    $0x0,%eax
  401e89:	e8 93 fc ff ff       	callq  401b21 <check_fail>
  401e8e:	89 fe                	mov    %edi,%esi
  401e90:	bf 00 00 00 00       	mov    $0x0,%edi
  401e95:	e8 0e fd ff ff       	callq  401ba8 <notify_server>
  401e9a:	48 83 c4 08          	add    $0x8,%rsp
  401e9e:	c3                   	retq   

0000000000401e9f <bushandler>:
  401e9f:	48 83 ec 08          	sub    $0x8,%rsp
  401ea3:	83 3d 7e 36 20 00 00 	cmpl   $0x0,0x20367e(%rip)        # 605528 <is_checker>
  401eaa:	74 14                	je     401ec0 <bushandler+0x21>
  401eac:	bf fd 34 40 00       	mov    $0x4034fd,%edi
  401eb1:	e8 1a ee ff ff       	callq  400cd0 <puts@plt>
  401eb6:	b8 00 00 00 00       	mov    $0x0,%eax
  401ebb:	e8 61 fc ff ff       	callq  401b21 <check_fail>
  401ec0:	bf 68 36 40 00       	mov    $0x403668,%edi
  401ec5:	e8 06 ee ff ff       	callq  400cd0 <puts@plt>
  401eca:	bf 07 35 40 00       	mov    $0x403507,%edi
  401ecf:	e8 fc ed ff ff       	callq  400cd0 <puts@plt>
  401ed4:	be 00 00 00 00       	mov    $0x0,%esi
  401ed9:	bf 00 00 00 00       	mov    $0x0,%edi
  401ede:	e8 c5 fc ff ff       	callq  401ba8 <notify_server>
  401ee3:	bf 01 00 00 00       	mov    $0x1,%edi
  401ee8:	e8 63 ef ff ff       	callq  400e50 <exit@plt>

0000000000401eed <seghandler>:
  401eed:	48 83 ec 08          	sub    $0x8,%rsp
  401ef1:	83 3d 30 36 20 00 00 	cmpl   $0x0,0x203630(%rip)        # 605528 <is_checker>
  401ef8:	74 14                	je     401f0e <seghandler+0x21>
  401efa:	bf 1d 35 40 00       	mov    $0x40351d,%edi
  401eff:	e8 cc ed ff ff       	callq  400cd0 <puts@plt>
  401f04:	b8 00 00 00 00       	mov    $0x0,%eax
  401f09:	e8 13 fc ff ff       	callq  401b21 <check_fail>
  401f0e:	bf 88 36 40 00       	mov    $0x403688,%edi
  401f13:	e8 b8 ed ff ff       	callq  400cd0 <puts@plt>
  401f18:	bf 07 35 40 00       	mov    $0x403507,%edi
  401f1d:	e8 ae ed ff ff       	callq  400cd0 <puts@plt>
  401f22:	be 00 00 00 00       	mov    $0x0,%esi
  401f27:	bf 00 00 00 00       	mov    $0x0,%edi
  401f2c:	e8 77 fc ff ff       	callq  401ba8 <notify_server>
  401f31:	bf 01 00 00 00       	mov    $0x1,%edi
  401f36:	e8 15 ef ff ff       	callq  400e50 <exit@plt>

0000000000401f3b <illegalhandler>:
  401f3b:	48 83 ec 08          	sub    $0x8,%rsp
  401f3f:	83 3d e2 35 20 00 00 	cmpl   $0x0,0x2035e2(%rip)        # 605528 <is_checker>
  401f46:	74 14                	je     401f5c <illegalhandler+0x21>
  401f48:	bf 30 35 40 00       	mov    $0x403530,%edi
  401f4d:	e8 7e ed ff ff       	callq  400cd0 <puts@plt>
  401f52:	b8 00 00 00 00       	mov    $0x0,%eax
  401f57:	e8 c5 fb ff ff       	callq  401b21 <check_fail>
  401f5c:	bf b0 36 40 00       	mov    $0x4036b0,%edi
  401f61:	e8 6a ed ff ff       	callq  400cd0 <puts@plt>
  401f66:	bf 07 35 40 00       	mov    $0x403507,%edi
  401f6b:	e8 60 ed ff ff       	callq  400cd0 <puts@plt>
  401f70:	be 00 00 00 00       	mov    $0x0,%esi
  401f75:	bf 00 00 00 00       	mov    $0x0,%edi
  401f7a:	e8 29 fc ff ff       	callq  401ba8 <notify_server>
  401f7f:	bf 01 00 00 00       	mov    $0x1,%edi
  401f84:	e8 c7 ee ff ff       	callq  400e50 <exit@plt>

0000000000401f89 <sigalrmhandler>:
  401f89:	48 83 ec 08          	sub    $0x8,%rsp
  401f8d:	83 3d 94 35 20 00 00 	cmpl   $0x0,0x203594(%rip)        # 605528 <is_checker>
  401f94:	74 14                	je     401faa <sigalrmhandler+0x21>
  401f96:	bf 44 35 40 00       	mov    $0x403544,%edi
  401f9b:	e8 30 ed ff ff       	callq  400cd0 <puts@plt>
  401fa0:	b8 00 00 00 00       	mov    $0x0,%eax
  401fa5:	e8 77 fb ff ff       	callq  401b21 <check_fail>
  401faa:	ba 05 00 00 00       	mov    $0x5,%edx
  401faf:	be e0 36 40 00       	mov    $0x4036e0,%esi
  401fb4:	bf 01 00 00 00       	mov    $0x1,%edi
  401fb9:	b8 00 00 00 00       	mov    $0x0,%eax
  401fbe:	e8 3d ee ff ff       	callq  400e00 <__printf_chk@plt>
  401fc3:	be 00 00 00 00       	mov    $0x0,%esi
  401fc8:	bf 00 00 00 00       	mov    $0x0,%edi
  401fcd:	e8 d6 fb ff ff       	callq  401ba8 <notify_server>
  401fd2:	bf 01 00 00 00       	mov    $0x1,%edi
  401fd7:	e8 74 ee ff ff       	callq  400e50 <exit@plt>

0000000000401fdc <launch>:
  401fdc:	55                   	push   %rbp
  401fdd:	48 89 e5             	mov    %rsp,%rbp
  401fe0:	48 83 ec 10          	sub    $0x10,%rsp
  401fe4:	48 89 fa             	mov    %rdi,%rdx
  401fe7:	64 48 8b 04 25 28 00 	mov    %fs:0x28,%rax
  401fee:	00 00 
  401ff0:	48 89 45 f8          	mov    %rax,-0x8(%rbp)
  401ff4:	31 c0                	xor    %eax,%eax
  401ff6:	48 8d 47 1e          	lea    0x1e(%rdi),%rax
  401ffa:	48 83 e0 f0          	and    $0xfffffffffffffff0,%rax
  401ffe:	48 29 c4             	sub    %rax,%rsp
  402001:	48 8d 7c 24 0f       	lea    0xf(%rsp),%rdi
  402006:	48 83 e7 f0          	and    $0xfffffffffffffff0,%rdi
  40200a:	be f4 00 00 00       	mov    $0xf4,%esi
  40200f:	e8 fc ec ff ff       	callq  400d10 <memset@plt>
  402014:	48 8b 05 a5 34 20 00 	mov    0x2034a5(%rip),%rax        # 6054c0 <stdin@@GLIBC_2.2.5>
  40201b:	48 39 05 ee 34 20 00 	cmp    %rax,0x2034ee(%rip)        # 605510 <infile>
  402022:	75 14                	jne    402038 <launch+0x5c>
  402024:	be 4c 35 40 00       	mov    $0x40354c,%esi
  402029:	bf 01 00 00 00       	mov    $0x1,%edi
  40202e:	b8 00 00 00 00       	mov    $0x0,%eax
  402033:	e8 c8 ed ff ff       	callq  400e00 <__printf_chk@plt>
  402038:	c7 05 da 34 20 00 00 	movl   $0x0,0x2034da(%rip)        # 60551c <vlevel>
  40203f:	00 00 00 
  402042:	b8 00 00 00 00       	mov    $0x0,%eax
  402047:	e8 41 fa ff ff       	callq  401a8d <test>
  40204c:	83 3d d5 34 20 00 00 	cmpl   $0x0,0x2034d5(%rip)        # 605528 <is_checker>
  402053:	74 14                	je     402069 <launch+0x8d>
  402055:	bf 59 35 40 00       	mov    $0x403559,%edi
  40205a:	e8 71 ec ff ff       	callq  400cd0 <puts@plt>
  40205f:	b8 00 00 00 00       	mov    $0x0,%eax
  402064:	e8 b8 fa ff ff       	callq  401b21 <check_fail>
  402069:	bf 64 35 40 00       	mov    $0x403564,%edi
  40206e:	e8 5d ec ff ff       	callq  400cd0 <puts@plt>
  402073:	48 8b 45 f8          	mov    -0x8(%rbp),%rax
  402077:	64 48 33 04 25 28 00 	xor    %fs:0x28,%rax
  40207e:	00 00 
  402080:	74 05                	je     402087 <launch+0xab>
  402082:	e8 69 ec ff ff       	callq  400cf0 <__stack_chk_fail@plt>
  402087:	c9                   	leaveq 
  402088:	c3                   	retq   

0000000000402089 <stable_launch>:
  402089:	53                   	push   %rbx
  40208a:	48 89 3d 77 34 20 00 	mov    %rdi,0x203477(%rip)        # 605508 <global_offset>
  402091:	41 b9 00 00 00 00    	mov    $0x0,%r9d
  402097:	41 b8 00 00 00 00    	mov    $0x0,%r8d
  40209d:	b9 32 01 00 00       	mov    $0x132,%ecx
  4020a2:	ba 07 00 00 00       	mov    $0x7,%edx
  4020a7:	be 00 00 10 00       	mov    $0x100000,%esi
  4020ac:	bf 00 60 58 55       	mov    $0x55586000,%edi
  4020b1:	e8 4a ec ff ff       	callq  400d00 <mmap@plt>
  4020b6:	48 89 c3             	mov    %rax,%rbx
  4020b9:	48 3d 00 60 58 55    	cmp    $0x55586000,%rax
  4020bf:	74 37                	je     4020f8 <stable_launch+0x6f>
  4020c1:	be 00 00 10 00       	mov    $0x100000,%esi
  4020c6:	48 89 c7             	mov    %rax,%rdi
  4020c9:	e8 22 ed ff ff       	callq  400df0 <munmap@plt>
  4020ce:	b9 00 60 58 55       	mov    $0x55586000,%ecx
  4020d3:	ba 18 37 40 00       	mov    $0x403718,%edx
  4020d8:	be 01 00 00 00       	mov    $0x1,%esi
  4020dd:	48 8b 3d fc 33 20 00 	mov    0x2033fc(%rip),%rdi        # 6054e0 <stderr@@GLIBC_2.2.5>
  4020e4:	b8 00 00 00 00       	mov    $0x0,%eax
  4020e9:	e8 82 ed ff ff       	callq  400e70 <__fprintf_chk@plt>
  4020ee:	bf 01 00 00 00       	mov    $0x1,%edi
  4020f3:	e8 58 ed ff ff       	callq  400e50 <exit@plt>
  4020f8:	48 8d 90 f8 ff 0f 00 	lea    0xffff8(%rax),%rdx
  4020ff:	48 89 15 4a 40 20 00 	mov    %rdx,0x20404a(%rip)        # 606150 <stack_top>
  402106:	48 89 e0             	mov    %rsp,%rax
  402109:	48 89 d4             	mov    %rdx,%rsp
  40210c:	48 89 c2             	mov    %rax,%rdx
  40210f:	48 89 15 ea 33 20 00 	mov    %rdx,0x2033ea(%rip)        # 605500 <global_save_stack>
  402116:	48 8b 3d eb 33 20 00 	mov    0x2033eb(%rip),%rdi        # 605508 <global_offset>
  40211d:	e8 ba fe ff ff       	callq  401fdc <launch>
  402122:	48 8b 05 d7 33 20 00 	mov    0x2033d7(%rip),%rax        # 605500 <global_save_stack>
  402129:	48 89 c4             	mov    %rax,%rsp
  40212c:	be 00 00 10 00       	mov    $0x100000,%esi
  402131:	48 89 df             	mov    %rbx,%rdi
  402134:	e8 b7 ec ff ff       	callq  400df0 <munmap@plt>
  402139:	5b                   	pop    %rbx
  40213a:	c3                   	retq   

000000000040213b <rio_readinitb>:
  40213b:	89 37                	mov    %esi,(%rdi)
  40213d:	c7 47 04 00 00 00 00 	movl   $0x0,0x4(%rdi)
  402144:	48 8d 47 10          	lea    0x10(%rdi),%rax
  402148:	48 89 47 08          	mov    %rax,0x8(%rdi)
  40214c:	c3                   	retq   

000000000040214d <sigalrm_handler>:
  40214d:	48 83 ec 08          	sub    $0x8,%rsp
  402151:	b9 00 00 00 00       	mov    $0x0,%ecx
  402156:	ba 50 37 40 00       	mov    $0x403750,%edx
  40215b:	be 01 00 00 00       	mov    $0x1,%esi
  402160:	48 8b 3d 79 33 20 00 	mov    0x203379(%rip),%rdi        # 6054e0 <stderr@@GLIBC_2.2.5>
  402167:	b8 00 00 00 00       	mov    $0x0,%eax
  40216c:	e8 ff ec ff ff       	callq  400e70 <__fprintf_chk@plt>
  402171:	bf 01 00 00 00       	mov    $0x1,%edi
  402176:	e8 d5 ec ff ff       	callq  400e50 <exit@plt>

000000000040217b <rio_writen>:
  40217b:	41 55                	push   %r13
  40217d:	41 54                	push   %r12
  40217f:	55                   	push   %rbp
  402180:	53                   	push   %rbx
  402181:	48 83 ec 08          	sub    $0x8,%rsp
  402185:	41 89 fc             	mov    %edi,%r12d
  402188:	48 89 f5             	mov    %rsi,%rbp
  40218b:	49 89 d5             	mov    %rdx,%r13
  40218e:	48 89 d3             	mov    %rdx,%rbx
  402191:	eb 28                	jmp    4021bb <rio_writen+0x40>
  402193:	48 89 da             	mov    %rbx,%rdx
  402196:	48 89 ee             	mov    %rbp,%rsi
  402199:	44 89 e7             	mov    %r12d,%edi
  40219c:	e8 3f eb ff ff       	callq  400ce0 <write@plt>
  4021a1:	48 85 c0             	test   %rax,%rax
  4021a4:	7f 0f                	jg     4021b5 <rio_writen+0x3a>
  4021a6:	e8 e5 ea ff ff       	callq  400c90 <__errno_location@plt>
  4021ab:	83 38 04             	cmpl   $0x4,(%rax)
  4021ae:	75 15                	jne    4021c5 <rio_writen+0x4a>
  4021b0:	b8 00 00 00 00       	mov    $0x0,%eax
  4021b5:	48 29 c3             	sub    %rax,%rbx
  4021b8:	48 01 c5             	add    %rax,%rbp
  4021bb:	48 85 db             	test   %rbx,%rbx
  4021be:	75 d3                	jne    402193 <rio_writen+0x18>
  4021c0:	4c 89 e8             	mov    %r13,%rax
  4021c3:	eb 07                	jmp    4021cc <rio_writen+0x51>
  4021c5:	48 c7 c0 ff ff ff ff 	mov    $0xffffffffffffffff,%rax
  4021cc:	48 83 c4 08          	add    $0x8,%rsp
  4021d0:	5b                   	pop    %rbx
  4021d1:	5d                   	pop    %rbp
  4021d2:	41 5c                	pop    %r12
  4021d4:	41 5d                	pop    %r13
  4021d6:	c3                   	retq   

00000000004021d7 <rio_read>:
  4021d7:	41 55                	push   %r13
  4021d9:	41 54                	push   %r12
  4021db:	55                   	push   %rbp
  4021dc:	53                   	push   %rbx
  4021dd:	48 83 ec 08          	sub    $0x8,%rsp
  4021e1:	48 89 fb             	mov    %rdi,%rbx
  4021e4:	49 89 f5             	mov    %rsi,%r13
  4021e7:	49 89 d4             	mov    %rdx,%r12
  4021ea:	eb 2e                	jmp    40221a <rio_read+0x43>
  4021ec:	48 8d 6b 10          	lea    0x10(%rbx),%rbp
  4021f0:	8b 3b                	mov    (%rbx),%edi
  4021f2:	ba 00 20 00 00       	mov    $0x2000,%edx
  4021f7:	48 89 ee             	mov    %rbp,%rsi
  4021fa:	e8 41 eb ff ff       	callq  400d40 <read@plt>
  4021ff:	89 43 04             	mov    %eax,0x4(%rbx)
  402202:	85 c0                	test   %eax,%eax
  402204:	79 0c                	jns    402212 <rio_read+0x3b>
  402206:	e8 85 ea ff ff       	callq  400c90 <__errno_location@plt>
  40220b:	83 38 04             	cmpl   $0x4,(%rax)
  40220e:	74 0a                	je     40221a <rio_read+0x43>
  402210:	eb 37                	jmp    402249 <rio_read+0x72>
  402212:	85 c0                	test   %eax,%eax
  402214:	74 3c                	je     402252 <rio_read+0x7b>
  402216:	48 89 6b 08          	mov    %rbp,0x8(%rbx)
  40221a:	8b 6b 04             	mov    0x4(%rbx),%ebp
  40221d:	85 ed                	test   %ebp,%ebp
  40221f:	7e cb                	jle    4021ec <rio_read+0x15>
  402221:	89 e8                	mov    %ebp,%eax
  402223:	49 39 c4             	cmp    %rax,%r12
  402226:	77 03                	ja     40222b <rio_read+0x54>
  402228:	44 89 e5             	mov    %r12d,%ebp
  40222b:	4c 63 e5             	movslq %ebp,%r12
  40222e:	48 8b 73 08          	mov    0x8(%rbx),%rsi
  402232:	4c 89 e2             	mov    %r12,%rdx
  402235:	4c 89 ef             	mov    %r13,%rdi
  402238:	e8 63 eb ff ff       	callq  400da0 <memcpy@plt>
  40223d:	4c 01 63 08          	add    %r12,0x8(%rbx)
  402241:	29 6b 04             	sub    %ebp,0x4(%rbx)
  402244:	4c 89 e0             	mov    %r12,%rax
  402247:	eb 0e                	jmp    402257 <rio_read+0x80>
  402249:	48 c7 c0 ff ff ff ff 	mov    $0xffffffffffffffff,%rax
  402250:	eb 05                	jmp    402257 <rio_read+0x80>
  402252:	b8 00 00 00 00       	mov    $0x0,%eax
  402257:	48 83 c4 08          	add    $0x8,%rsp
  40225b:	5b                   	pop    %rbx
  40225c:	5d                   	pop    %rbp
  40225d:	41 5c                	pop    %r12
  40225f:	41 5d                	pop    %r13
  402261:	c3                   	retq   

0000000000402262 <rio_readlineb>:
  402262:	41 55                	push   %r13
  402264:	41 54                	push   %r12
  402266:	55                   	push   %rbp
  402267:	53                   	push   %rbx
  402268:	48 83 ec 18          	sub    $0x18,%rsp
  40226c:	49 89 fd             	mov    %rdi,%r13
  40226f:	48 89 f5             	mov    %rsi,%rbp
  402272:	49 89 d4             	mov    %rdx,%r12
  402275:	64 48 8b 04 25 28 00 	mov    %fs:0x28,%rax
  40227c:	00 00 
  40227e:	48 89 44 24 08       	mov    %rax,0x8(%rsp)
  402283:	31 c0                	xor    %eax,%eax
  402285:	bb 01 00 00 00       	mov    $0x1,%ebx
  40228a:	eb 3f                	jmp    4022cb <rio_readlineb+0x69>
  40228c:	ba 01 00 00 00       	mov    $0x1,%edx
  402291:	48 8d 74 24 07       	lea    0x7(%rsp),%rsi
  402296:	4c 89 ef             	mov    %r13,%rdi
  402299:	e8 39 ff ff ff       	callq  4021d7 <rio_read>
  40229e:	83 f8 01             	cmp    $0x1,%eax
  4022a1:	75 15                	jne    4022b8 <rio_readlineb+0x56>
  4022a3:	48 8d 45 01          	lea    0x1(%rbp),%rax
  4022a7:	0f b6 54 24 07       	movzbl 0x7(%rsp),%edx
  4022ac:	88 55 00             	mov    %dl,0x0(%rbp)
  4022af:	80 7c 24 07 0a       	cmpb   $0xa,0x7(%rsp)
  4022b4:	75 0e                	jne    4022c4 <rio_readlineb+0x62>
  4022b6:	eb 1a                	jmp    4022d2 <rio_readlineb+0x70>
  4022b8:	85 c0                	test   %eax,%eax
  4022ba:	75 22                	jne    4022de <rio_readlineb+0x7c>
  4022bc:	48 83 fb 01          	cmp    $0x1,%rbx
  4022c0:	75 13                	jne    4022d5 <rio_readlineb+0x73>
  4022c2:	eb 23                	jmp    4022e7 <rio_readlineb+0x85>
  4022c4:	48 83 c3 01          	add    $0x1,%rbx
  4022c8:	48 89 c5             	mov    %rax,%rbp
  4022cb:	4c 39 e3             	cmp    %r12,%rbx
  4022ce:	72 bc                	jb     40228c <rio_readlineb+0x2a>
  4022d0:	eb 03                	jmp    4022d5 <rio_readlineb+0x73>
  4022d2:	48 89 c5             	mov    %rax,%rbp
  4022d5:	c6 45 00 00          	movb   $0x0,0x0(%rbp)
  4022d9:	48 89 d8             	mov    %rbx,%rax
  4022dc:	eb 0e                	jmp    4022ec <rio_readlineb+0x8a>
  4022de:	48 c7 c0 ff ff ff ff 	mov    $0xffffffffffffffff,%rax
  4022e5:	eb 05                	jmp    4022ec <rio_readlineb+0x8a>
  4022e7:	b8 00 00 00 00       	mov    $0x0,%eax
  4022ec:	48 8b 4c 24 08       	mov    0x8(%rsp),%rcx
  4022f1:	64 48 33 0c 25 28 00 	xor    %fs:0x28,%rcx
  4022f8:	00 00 
  4022fa:	74 05                	je     402301 <rio_readlineb+0x9f>
  4022fc:	e8 ef e9 ff ff       	callq  400cf0 <__stack_chk_fail@plt>
  402301:	48 83 c4 18          	add    $0x18,%rsp
  402305:	5b                   	pop    %rbx
  402306:	5d                   	pop    %rbp
  402307:	41 5c                	pop    %r12
  402309:	41 5d                	pop    %r13
  40230b:	c3                   	retq   

000000000040230c <urlencode>:
  40230c:	41 54                	push   %r12
  40230e:	55                   	push   %rbp
  40230f:	53                   	push   %rbx
  402310:	48 83 ec 10          	sub    $0x10,%rsp
  402314:	48 89 fb             	mov    %rdi,%rbx
  402317:	48 89 f5             	mov    %rsi,%rbp
  40231a:	64 48 8b 04 25 28 00 	mov    %fs:0x28,%rax
  402321:	00 00 
  402323:	48 89 44 24 08       	mov    %rax,0x8(%rsp)
  402328:	31 c0                	xor    %eax,%eax
  40232a:	48 c7 c1 ff ff ff ff 	mov    $0xffffffffffffffff,%rcx
  402331:	f2 ae                	repnz scas %es:(%rdi),%al
  402333:	48 f7 d1             	not    %rcx
  402336:	8d 41 ff             	lea    -0x1(%rcx),%eax
  402339:	e9 aa 00 00 00       	jmpq   4023e8 <urlencode+0xdc>
  40233e:	44 0f b6 03          	movzbl (%rbx),%r8d
  402342:	41 80 f8 2a          	cmp    $0x2a,%r8b
  402346:	0f 94 c2             	sete   %dl
  402349:	41 80 f8 2d          	cmp    $0x2d,%r8b
  40234d:	0f 94 c0             	sete   %al
  402350:	08 c2                	or     %al,%dl
  402352:	75 24                	jne    402378 <urlencode+0x6c>
  402354:	41 80 f8 2e          	cmp    $0x2e,%r8b
  402358:	74 1e                	je     402378 <urlencode+0x6c>
  40235a:	41 80 f8 5f          	cmp    $0x5f,%r8b
  40235e:	74 18                	je     402378 <urlencode+0x6c>
  402360:	41 8d 40 d0          	lea    -0x30(%r8),%eax
  402364:	3c 09                	cmp    $0x9,%al
  402366:	76 10                	jbe    402378 <urlencode+0x6c>
  402368:	41 8d 40 bf          	lea    -0x41(%r8),%eax
  40236c:	3c 19                	cmp    $0x19,%al
  40236e:	76 08                	jbe    402378 <urlencode+0x6c>
  402370:	41 8d 40 9f          	lea    -0x61(%r8),%eax
  402374:	3c 19                	cmp    $0x19,%al
  402376:	77 0a                	ja     402382 <urlencode+0x76>
  402378:	44 88 45 00          	mov    %r8b,0x0(%rbp)
  40237c:	48 8d 6d 01          	lea    0x1(%rbp),%rbp
  402380:	eb 5f                	jmp    4023e1 <urlencode+0xd5>
  402382:	41 80 f8 20          	cmp    $0x20,%r8b
  402386:	75 0a                	jne    402392 <urlencode+0x86>
  402388:	c6 45 00 2b          	movb   $0x2b,0x0(%rbp)
  40238c:	48 8d 6d 01          	lea    0x1(%rbp),%rbp
  402390:	eb 4f                	jmp    4023e1 <urlencode+0xd5>
  402392:	41 8d 40 e0          	lea    -0x20(%r8),%eax
  402396:	3c 5f                	cmp    $0x5f,%al
  402398:	0f 96 c2             	setbe  %dl
  40239b:	41 80 f8 09          	cmp    $0x9,%r8b
  40239f:	0f 94 c0             	sete   %al
  4023a2:	08 c2                	or     %al,%dl
  4023a4:	74 50                	je     4023f6 <urlencode+0xea>
  4023a6:	45 0f b6 c0          	movzbl %r8b,%r8d
  4023aa:	b9 e8 37 40 00       	mov    $0x4037e8,%ecx
  4023af:	ba 08 00 00 00       	mov    $0x8,%edx
  4023b4:	be 01 00 00 00       	mov    $0x1,%esi
  4023b9:	48 89 e7             	mov    %rsp,%rdi
  4023bc:	b8 00 00 00 00       	mov    $0x0,%eax
  4023c1:	e8 ba ea ff ff       	callq  400e80 <__sprintf_chk@plt>
  4023c6:	0f b6 04 24          	movzbl (%rsp),%eax
  4023ca:	88 45 00             	mov    %al,0x0(%rbp)
  4023cd:	0f b6 44 24 01       	movzbl 0x1(%rsp),%eax
  4023d2:	88 45 01             	mov    %al,0x1(%rbp)
  4023d5:	0f b6 44 24 02       	movzbl 0x2(%rsp),%eax
  4023da:	88 45 02             	mov    %al,0x2(%rbp)
  4023dd:	48 8d 6d 03          	lea    0x3(%rbp),%rbp
  4023e1:	48 83 c3 01          	add    $0x1,%rbx
  4023e5:	44 89 e0             	mov    %r12d,%eax
  4023e8:	44 8d 60 ff          	lea    -0x1(%rax),%r12d
  4023ec:	85 c0                	test   %eax,%eax
  4023ee:	0f 85 4a ff ff ff    	jne    40233e <urlencode+0x32>
  4023f4:	eb 05                	jmp    4023fb <urlencode+0xef>
  4023f6:	b8 ff ff ff ff       	mov    $0xffffffff,%eax
  4023fb:	48 8b 74 24 08       	mov    0x8(%rsp),%rsi
  402400:	64 48 33 34 25 28 00 	xor    %fs:0x28,%rsi
  402407:	00 00 
  402409:	74 05                	je     402410 <urlencode+0x104>
  40240b:	e8 e0 e8 ff ff       	callq  400cf0 <__stack_chk_fail@plt>
  402410:	48 83 c4 10          	add    $0x10,%rsp
  402414:	5b                   	pop    %rbx
  402415:	5d                   	pop    %rbp
  402416:	41 5c                	pop    %r12
  402418:	c3                   	retq   

0000000000402419 <submitr>:
  402419:	41 57                	push   %r15
  40241b:	41 56                	push   %r14
  40241d:	41 55                	push   %r13
  40241f:	41 54                	push   %r12
  402421:	55                   	push   %rbp
  402422:	53                   	push   %rbx
  402423:	48 81 ec 58 a0 00 00 	sub    $0xa058,%rsp
  40242a:	49 89 fc             	mov    %rdi,%r12
  40242d:	89 74 24 04          	mov    %esi,0x4(%rsp)
  402431:	49 89 d7             	mov    %rdx,%r15
  402434:	49 89 ce             	mov    %rcx,%r14
  402437:	4c 89 44 24 08       	mov    %r8,0x8(%rsp)
  40243c:	4d 89 cd             	mov    %r9,%r13
  40243f:	48 8b 9c 24 90 a0 00 	mov    0xa090(%rsp),%rbx
  402446:	00 
  402447:	64 48 8b 04 25 28 00 	mov    %fs:0x28,%rax
  40244e:	00 00 
  402450:	48 89 84 24 48 a0 00 	mov    %rax,0xa048(%rsp)
  402457:	00 
  402458:	31 c0                	xor    %eax,%eax
  40245a:	c7 44 24 1c 00 00 00 	movl   $0x0,0x1c(%rsp)
  402461:	00 
  402462:	ba 00 00 00 00       	mov    $0x0,%edx
  402467:	be 01 00 00 00       	mov    $0x1,%esi
  40246c:	bf 02 00 00 00       	mov    $0x2,%edi
  402471:	e8 1a ea ff ff       	callq  400e90 <socket@plt>
  402476:	85 c0                	test   %eax,%eax
  402478:	79 4e                	jns    4024c8 <submitr+0xaf>
  40247a:	48 b8 45 72 72 6f 72 	movabs $0x43203a726f727245,%rax
  402481:	3a 20 43 
  402484:	48 89 03             	mov    %rax,(%rbx)
  402487:	48 b8 6c 69 65 6e 74 	movabs $0x6e7520746e65696c,%rax
  40248e:	20 75 6e 
  402491:	48 89 43 08          	mov    %rax,0x8(%rbx)
  402495:	48 b8 61 62 6c 65 20 	movabs $0x206f7420656c6261,%rax
  40249c:	74 6f 20 
  40249f:	48 89 43 10          	mov    %rax,0x10(%rbx)
  4024a3:	48 b8 63 72 65 61 74 	movabs $0x7320657461657263,%rax
  4024aa:	65 20 73 
  4024ad:	48 89 43 18          	mov    %rax,0x18(%rbx)
  4024b1:	c7 43 20 6f 63 6b 65 	movl   $0x656b636f,0x20(%rbx)
  4024b8:	66 c7 43 24 74 00    	movw   $0x74,0x24(%rbx)
  4024be:	b8 ff ff ff ff       	mov    $0xffffffff,%eax
  4024c3:	e9 97 06 00 00       	jmpq   402b5f <submitr+0x746>
  4024c8:	89 c5                	mov    %eax,%ebp
  4024ca:	4c 89 e7             	mov    %r12,%rdi
  4024cd:	e8 9e e8 ff ff       	callq  400d70 <gethostbyname@plt>
  4024d2:	48 85 c0             	test   %rax,%rax
  4024d5:	75 67                	jne    40253e <submitr+0x125>
  4024d7:	48 b8 45 72 72 6f 72 	movabs $0x44203a726f727245,%rax
  4024de:	3a 20 44 
  4024e1:	48 89 03             	mov    %rax,(%rbx)
  4024e4:	48 b8 4e 53 20 69 73 	movabs $0x6e7520736920534e,%rax
  4024eb:	20 75 6e 
  4024ee:	48 89 43 08          	mov    %rax,0x8(%rbx)
  4024f2:	48 b8 61 62 6c 65 20 	movabs $0x206f7420656c6261,%rax
  4024f9:	74 6f 20 
  4024fc:	48 89 43 10          	mov    %rax,0x10(%rbx)
  402500:	48 b8 72 65 73 6f 6c 	movabs $0x2065766c6f736572,%rax
  402507:	76 65 20 
  40250a:	48 89 43 18          	mov    %rax,0x18(%rbx)
  40250e:	48 b8 73 65 72 76 65 	movabs $0x6120726576726573,%rax
  402515:	72 20 61 
  402518:	48 89 43 20          	mov    %rax,0x20(%rbx)
  40251c:	c7 43 28 64 64 72 65 	movl   $0x65726464,0x28(%rbx)
  402523:	66 c7 43 2c 73 73    	movw   $0x7373,0x2c(%rbx)
  402529:	c6 43 2e 00          	movb   $0x0,0x2e(%rbx)
  40252d:	89 ef                	mov    %ebp,%edi
  40252f:	e8 fc e7 ff ff       	callq  400d30 <close@plt>
  402534:	b8 ff ff ff ff       	mov    $0xffffffff,%eax
  402539:	e9 21 06 00 00       	jmpq   402b5f <submitr+0x746>
  40253e:	48 c7 44 24 20 00 00 	movq   $0x0,0x20(%rsp)
  402545:	00 00 
  402547:	48 c7 44 24 28 00 00 	movq   $0x0,0x28(%rsp)
  40254e:	00 00 
  402550:	66 c7 44 24 20 02 00 	movw   $0x2,0x20(%rsp)
  402557:	48 63 50 14          	movslq 0x14(%rax),%rdx
  40255b:	48 8b 40 18          	mov    0x18(%rax),%rax
  40255f:	48 8b 30             	mov    (%rax),%rsi
  402562:	48 8d 7c 24 24       	lea    0x24(%rsp),%rdi
  402567:	b9 0c 00 00 00       	mov    $0xc,%ecx
  40256c:	e8 0f e8 ff ff       	callq  400d80 <__memmove_chk@plt>
  402571:	0f b7 44 24 04       	movzwl 0x4(%rsp),%eax
  402576:	66 c1 c8 08          	ror    $0x8,%ax
  40257a:	66 89 44 24 22       	mov    %ax,0x22(%rsp)
  40257f:	ba 10 00 00 00       	mov    $0x10,%edx
  402584:	48 8d 74 24 20       	lea    0x20(%rsp),%rsi
  402589:	89 ef                	mov    %ebp,%edi
  40258b:	e8 d0 e8 ff ff       	callq  400e60 <connect@plt>
  402590:	85 c0                	test   %eax,%eax
  402592:	79 59                	jns    4025ed <submitr+0x1d4>
  402594:	48 b8 45 72 72 6f 72 	movabs $0x55203a726f727245,%rax
  40259b:	3a 20 55 
  40259e:	48 89 03             	mov    %rax,(%rbx)
  4025a1:	48 b8 6e 61 62 6c 65 	movabs $0x6f7420656c62616e,%rax
  4025a8:	20 74 6f 
  4025ab:	48 89 43 08          	mov    %rax,0x8(%rbx)
  4025af:	48 b8 20 63 6f 6e 6e 	movabs $0x7463656e6e6f6320,%rax
  4025b6:	65 63 74 
  4025b9:	48 89 43 10          	mov    %rax,0x10(%rbx)
  4025bd:	48 b8 20 74 6f 20 74 	movabs $0x20656874206f7420,%rax
  4025c4:	68 65 20 
  4025c7:	48 89 43 18          	mov    %rax,0x18(%rbx)
  4025cb:	c7 43 20 73 65 72 76 	movl   $0x76726573,0x20(%rbx)
  4025d2:	66 c7 43 24 65 72    	movw   $0x7265,0x24(%rbx)
  4025d8:	c6 43 26 00          	movb   $0x0,0x26(%rbx)
  4025dc:	89 ef                	mov    %ebp,%edi
  4025de:	e8 4d e7 ff ff       	callq  400d30 <close@plt>
  4025e3:	b8 ff ff ff ff       	mov    $0xffffffff,%eax
  4025e8:	e9 72 05 00 00       	jmpq   402b5f <submitr+0x746>
  4025ed:	48 c7 c6 ff ff ff ff 	mov    $0xffffffffffffffff,%rsi
  4025f4:	b8 00 00 00 00       	mov    $0x0,%eax
  4025f9:	48 89 f1             	mov    %rsi,%rcx
  4025fc:	4c 89 ef             	mov    %r13,%rdi
  4025ff:	f2 ae                	repnz scas %es:(%rdi),%al
  402601:	48 f7 d1             	not    %rcx
  402604:	48 89 ca             	mov    %rcx,%rdx
  402607:	48 89 f1             	mov    %rsi,%rcx
  40260a:	4c 89 ff             	mov    %r15,%rdi
  40260d:	f2 ae                	repnz scas %es:(%rdi),%al
  40260f:	48 f7 d1             	not    %rcx
  402612:	49 89 c8             	mov    %rcx,%r8
  402615:	48 89 f1             	mov    %rsi,%rcx
  402618:	4c 89 f7             	mov    %r14,%rdi
  40261b:	f2 ae                	repnz scas %es:(%rdi),%al
  40261d:	48 f7 d1             	not    %rcx
  402620:	4d 8d 44 08 fe       	lea    -0x2(%r8,%rcx,1),%r8
  402625:	48 89 f1             	mov    %rsi,%rcx
  402628:	48 8b 7c 24 08       	mov    0x8(%rsp),%rdi
  40262d:	f2 ae                	repnz scas %es:(%rdi),%al
  40262f:	48 89 c8             	mov    %rcx,%rax
  402632:	48 f7 d0             	not    %rax
  402635:	49 8d 4c 00 ff       	lea    -0x1(%r8,%rax,1),%rcx
  40263a:	48 8d 44 52 fd       	lea    -0x3(%rdx,%rdx,2),%rax
  40263f:	48 8d 84 01 80 00 00 	lea    0x80(%rcx,%rax,1),%rax
  402646:	00 
  402647:	48 3d 00 20 00 00    	cmp    $0x2000,%rax
  40264d:	76 72                	jbe    4026c1 <submitr+0x2a8>
  40264f:	48 b8 45 72 72 6f 72 	movabs $0x52203a726f727245,%rax
  402656:	3a 20 52 
  402659:	48 89 03             	mov    %rax,(%rbx)
  40265c:	48 b8 65 73 75 6c 74 	movabs $0x747320746c757365,%rax
  402663:	20 73 74 
  402666:	48 89 43 08          	mov    %rax,0x8(%rbx)
  40266a:	48 b8 72 69 6e 67 20 	movabs $0x6f6f7420676e6972,%rax
  402671:	74 6f 6f 
  402674:	48 89 43 10          	mov    %rax,0x10(%rbx)
  402678:	48 b8 20 6c 61 72 67 	movabs $0x202e656772616c20,%rax
  40267f:	65 2e 20 
  402682:	48 89 43 18          	mov    %rax,0x18(%rbx)
  402686:	48 b8 49 6e 63 72 65 	movabs $0x6573616572636e49,%rax
  40268d:	61 73 65 
  402690:	48 89 43 20          	mov    %rax,0x20(%rbx)
  402694:	48 b8 20 53 55 42 4d 	movabs $0x5254494d42555320,%rax
  40269b:	49 54 52 
  40269e:	48 89 43 28          	mov    %rax,0x28(%rbx)
  4026a2:	48 b8 5f 4d 41 58 42 	movabs $0x46554258414d5f,%rax
  4026a9:	55 46 00 
  4026ac:	48 89 43 30          	mov    %rax,0x30(%rbx)
  4026b0:	89 ef                	mov    %ebp,%edi
  4026b2:	e8 79 e6 ff ff       	callq  400d30 <close@plt>
  4026b7:	b8 ff ff ff ff       	mov    $0xffffffff,%eax
  4026bc:	e9 9e 04 00 00       	jmpq   402b5f <submitr+0x746>
  4026c1:	48 8d b4 24 40 40 00 	lea    0x4040(%rsp),%rsi
  4026c8:	00 
  4026c9:	b9 00 04 00 00       	mov    $0x400,%ecx
  4026ce:	b8 00 00 00 00       	mov    $0x0,%eax
  4026d3:	48 89 f7             	mov    %rsi,%rdi
  4026d6:	f3 48 ab             	rep stos %rax,%es:(%rdi)
  4026d9:	4c 89 ef             	mov    %r13,%rdi
  4026dc:	e8 2b fc ff ff       	callq  40230c <urlencode>
  4026e1:	85 c0                	test   %eax,%eax
  4026e3:	0f 89 8a 00 00 00    	jns    402773 <submitr+0x35a>
  4026e9:	48 b8 45 72 72 6f 72 	movabs $0x52203a726f727245,%rax
  4026f0:	3a 20 52 
  4026f3:	48 89 03             	mov    %rax,(%rbx)
  4026f6:	48 b8 65 73 75 6c 74 	movabs $0x747320746c757365,%rax
  4026fd:	20 73 74 
  402700:	48 89 43 08          	mov    %rax,0x8(%rbx)
  402704:	48 b8 72 69 6e 67 20 	movabs $0x6e6f6320676e6972,%rax
  40270b:	63 6f 6e 
  40270e:	48 89 43 10          	mov    %rax,0x10(%rbx)
  402712:	48 b8 74 61 69 6e 73 	movabs $0x6e6120736e696174,%rax
  402719:	20 61 6e 
  40271c:	48 89 43 18          	mov    %rax,0x18(%rbx)
  402720:	48 b8 20 69 6c 6c 65 	movabs $0x6c6167656c6c6920,%rax
  402727:	67 61 6c 
  40272a:	48 89 43 20          	mov    %rax,0x20(%rbx)
  40272e:	48 b8 20 6f 72 20 75 	movabs $0x72706e7520726f20,%rax
  402735:	6e 70 72 
  402738:	48 89 43 28          	mov    %rax,0x28(%rbx)
  40273c:	48 b8 69 6e 74 61 62 	movabs $0x20656c6261746e69,%rax
  402743:	6c 65 20 
  402746:	48 89 43 30          	mov    %rax,0x30(%rbx)
  40274a:	48 b8 63 68 61 72 61 	movabs $0x6574636172616863,%rax
  402751:	63 74 65 
  402754:	48 89 43 38          	mov    %rax,0x38(%rbx)
  402758:	66 c7 43 40 72 2e    	movw   $0x2e72,0x40(%rbx)
  40275e:	c6 43 42 00          	movb   $0x0,0x42(%rbx)
  402762:	89 ef                	mov    %ebp,%edi
  402764:	e8 c7 e5 ff ff       	callq  400d30 <close@plt>
  402769:	b8 ff ff ff ff       	mov    $0xffffffff,%eax
  40276e:	e9 ec 03 00 00       	jmpq   402b5f <submitr+0x746>
  402773:	4c 8d ac 24 40 20 00 	lea    0x2040(%rsp),%r13
  40277a:	00 
  40277b:	41 54                	push   %r12
  40277d:	48 8d 84 24 48 40 00 	lea    0x4048(%rsp),%rax
  402784:	00 
  402785:	50                   	push   %rax
  402786:	4d 89 f9             	mov    %r15,%r9
  402789:	4d 89 f0             	mov    %r14,%r8
  40278c:	b9 78 37 40 00       	mov    $0x403778,%ecx
  402791:	ba 00 20 00 00       	mov    $0x2000,%edx
  402796:	be 01 00 00 00       	mov    $0x1,%esi
  40279b:	4c 89 ef             	mov    %r13,%rdi
  40279e:	b8 00 00 00 00       	mov    $0x0,%eax
  4027a3:	e8 d8 e6 ff ff       	callq  400e80 <__sprintf_chk@plt>
  4027a8:	b8 00 00 00 00       	mov    $0x0,%eax
  4027ad:	48 c7 c1 ff ff ff ff 	mov    $0xffffffffffffffff,%rcx
  4027b4:	4c 89 ef             	mov    %r13,%rdi
  4027b7:	f2 ae                	repnz scas %es:(%rdi),%al
  4027b9:	48 f7 d1             	not    %rcx
  4027bc:	48 8d 51 ff          	lea    -0x1(%rcx),%rdx
  4027c0:	4c 89 ee             	mov    %r13,%rsi
  4027c3:	89 ef                	mov    %ebp,%edi
  4027c5:	e8 b1 f9 ff ff       	callq  40217b <rio_writen>
  4027ca:	48 83 c4 10          	add    $0x10,%rsp
  4027ce:	48 85 c0             	test   %rax,%rax
  4027d1:	79 6e                	jns    402841 <submitr+0x428>
  4027d3:	48 b8 45 72 72 6f 72 	movabs $0x43203a726f727245,%rax
  4027da:	3a 20 43 
  4027dd:	48 89 03             	mov    %rax,(%rbx)
  4027e0:	48 b8 6c 69 65 6e 74 	movabs $0x6e7520746e65696c,%rax
  4027e7:	20 75 6e 
  4027ea:	48 89 43 08          	mov    %rax,0x8(%rbx)
  4027ee:	48 b8 61 62 6c 65 20 	movabs $0x206f7420656c6261,%rax
  4027f5:	74 6f 20 
  4027f8:	48 89 43 10          	mov    %rax,0x10(%rbx)
  4027fc:	48 b8 77 72 69 74 65 	movabs $0x6f74206574697277,%rax
  402803:	20 74 6f 
  402806:	48 89 43 18          	mov    %rax,0x18(%rbx)
  40280a:	48 b8 20 74 68 65 20 	movabs $0x7365722065687420,%rax
  402811:	72 65 73 
  402814:	48 89 43 20          	mov    %rax,0x20(%rbx)
  402818:	48 b8 75 6c 74 20 73 	movabs $0x7672657320746c75,%rax
  40281f:	65 72 76 
  402822:	48 89 43 28          	mov    %rax,0x28(%rbx)
  402826:	66 c7 43 30 65 72    	movw   $0x7265,0x30(%rbx)
  40282c:	c6 43 32 00          	movb   $0x0,0x32(%rbx)
  402830:	89 ef                	mov    %ebp,%edi
  402832:	e8 f9 e4 ff ff       	callq  400d30 <close@plt>
  402837:	b8 ff ff ff ff       	mov    $0xffffffff,%eax
  40283c:	e9 1e 03 00 00       	jmpq   402b5f <submitr+0x746>
  402841:	89 ee                	mov    %ebp,%esi
  402843:	48 8d 7c 24 30       	lea    0x30(%rsp),%rdi
  402848:	e8 ee f8 ff ff       	callq  40213b <rio_readinitb>
  40284d:	ba 00 20 00 00       	mov    $0x2000,%edx
  402852:	48 8d b4 24 40 20 00 	lea    0x2040(%rsp),%rsi
  402859:	00 
  40285a:	48 8d 7c 24 30       	lea    0x30(%rsp),%rdi
  40285f:	e8 fe f9 ff ff       	callq  402262 <rio_readlineb>
  402864:	48 85 c0             	test   %rax,%rax
  402867:	7f 7d                	jg     4028e6 <submitr+0x4cd>
  402869:	48 b8 45 72 72 6f 72 	movabs $0x43203a726f727245,%rax
  402870:	3a 20 43 
  402873:	48 89 03             	mov    %rax,(%rbx)
  402876:	48 b8 6c 69 65 6e 74 	movabs $0x6e7520746e65696c,%rax
  40287d:	20 75 6e 
  402880:	48 89 43 08          	mov    %rax,0x8(%rbx)
  402884:	48 b8 61 62 6c 65 20 	movabs $0x206f7420656c6261,%rax
  40288b:	74 6f 20 
  40288e:	48 89 43 10          	mov    %rax,0x10(%rbx)
  402892:	48 b8 72 65 61 64 20 	movabs $0x7269662064616572,%rax
  402899:	66 69 72 
  40289c:	48 89 43 18          	mov    %rax,0x18(%rbx)
  4028a0:	48 b8 73 74 20 68 65 	movabs $0x6564616568207473,%rax
  4028a7:	61 64 65 
  4028aa:	48 89 43 20          	mov    %rax,0x20(%rbx)
  4028ae:	48 b8 72 20 66 72 6f 	movabs $0x72206d6f72662072,%rax
  4028b5:	6d 20 72 
  4028b8:	48 89 43 28          	mov    %rax,0x28(%rbx)
  4028bc:	48 b8 65 73 75 6c 74 	movabs $0x657320746c757365,%rax
  4028c3:	20 73 65 
  4028c6:	48 89 43 30          	mov    %rax,0x30(%rbx)
  4028ca:	c7 43 38 72 76 65 72 	movl   $0x72657672,0x38(%rbx)
  4028d1:	c6 43 3c 00          	movb   $0x0,0x3c(%rbx)
  4028d5:	89 ef                	mov    %ebp,%edi
  4028d7:	e8 54 e4 ff ff       	callq  400d30 <close@plt>
  4028dc:	b8 ff ff ff ff       	mov    $0xffffffff,%eax
  4028e1:	e9 79 02 00 00       	jmpq   402b5f <submitr+0x746>
  4028e6:	4c 8d 84 24 40 80 00 	lea    0x8040(%rsp),%r8
  4028ed:	00 
  4028ee:	48 8d 4c 24 1c       	lea    0x1c(%rsp),%rcx
  4028f3:	48 8d 94 24 40 60 00 	lea    0x6040(%rsp),%rdx
  4028fa:	00 
  4028fb:	be ef 37 40 00       	mov    $0x4037ef,%esi
  402900:	48 8d bc 24 40 20 00 	lea    0x2040(%rsp),%rdi
  402907:	00 
  402908:	b8 00 00 00 00       	mov    $0x0,%eax
  40290d:	e8 ce e4 ff ff       	callq  400de0 <__isoc99_sscanf@plt>
  402912:	e9 95 00 00 00       	jmpq   4029ac <submitr+0x593>
  402917:	ba 00 20 00 00       	mov    $0x2000,%edx
  40291c:	48 8d b4 24 40 20 00 	lea    0x2040(%rsp),%rsi
  402923:	00 
  402924:	48 8d 7c 24 30       	lea    0x30(%rsp),%rdi
  402929:	e8 34 f9 ff ff       	callq  402262 <rio_readlineb>
  40292e:	48 85 c0             	test   %rax,%rax
  402931:	7f 79                	jg     4029ac <submitr+0x593>
  402933:	48 b8 45 72 72 6f 72 	movabs $0x43203a726f727245,%rax
  40293a:	3a 20 43 
  40293d:	48 89 03             	mov    %rax,(%rbx)
  402940:	48 b8 6c 69 65 6e 74 	movabs $0x6e7520746e65696c,%rax
  402947:	20 75 6e 
  40294a:	48 89 43 08          	mov    %rax,0x8(%rbx)
  40294e:	48 b8 61 62 6c 65 20 	movabs $0x206f7420656c6261,%rax
  402955:	74 6f 20 
  402958:	48 89 43 10          	mov    %rax,0x10(%rbx)
  40295c:	48 b8 72 65 61 64 20 	movabs $0x6165682064616572,%rax
  402963:	68 65 61 
  402966:	48 89 43 18          	mov    %rax,0x18(%rbx)
  40296a:	48 b8 64 65 72 73 20 	movabs $0x6f72662073726564,%rax
  402971:	66 72 6f 
  402974:	48 89 43 20          	mov    %rax,0x20(%rbx)
  402978:	48 b8 6d 20 74 68 65 	movabs $0x657220656874206d,%rax
  40297f:	20 72 65 
  402982:	48 89 43 28          	mov    %rax,0x28(%rbx)
  402986:	48 b8 73 75 6c 74 20 	movabs $0x72657320746c7573,%rax
  40298d:	73 65 72 
  402990:	48 89 43 30          	mov    %rax,0x30(%rbx)
  402994:	c7 43 38 76 65 72 00 	movl   $0x726576,0x38(%rbx)
  40299b:	89 ef                	mov    %ebp,%edi
  40299d:	e8 8e e3 ff ff       	callq  400d30 <close@plt>
  4029a2:	b8 ff ff ff ff       	mov    $0xffffffff,%eax
  4029a7:	e9 b3 01 00 00       	jmpq   402b5f <submitr+0x746>
  4029ac:	0f b6 94 24 40 20 00 	movzbl 0x2040(%rsp),%edx
  4029b3:	00 
  4029b4:	b8 0d 00 00 00       	mov    $0xd,%eax
  4029b9:	29 d0                	sub    %edx,%eax
  4029bb:	75 1b                	jne    4029d8 <submitr+0x5bf>
  4029bd:	0f b6 94 24 41 20 00 	movzbl 0x2041(%rsp),%edx
  4029c4:	00 
  4029c5:	b8 0a 00 00 00       	mov    $0xa,%eax
  4029ca:	29 d0                	sub    %edx,%eax
  4029cc:	75 0a                	jne    4029d8 <submitr+0x5bf>
  4029ce:	0f b6 84 24 42 20 00 	movzbl 0x2042(%rsp),%eax
  4029d5:	00 
  4029d6:	f7 d8                	neg    %eax
  4029d8:	85 c0                	test   %eax,%eax
  4029da:	0f 85 37 ff ff ff    	jne    402917 <submitr+0x4fe>
  4029e0:	ba 00 20 00 00       	mov    $0x2000,%edx
  4029e5:	48 8d b4 24 40 20 00 	lea    0x2040(%rsp),%rsi
  4029ec:	00 
  4029ed:	48 8d 7c 24 30       	lea    0x30(%rsp),%rdi
  4029f2:	e8 6b f8 ff ff       	callq  402262 <rio_readlineb>
  4029f7:	48 85 c0             	test   %rax,%rax
  4029fa:	0f 8f 83 00 00 00    	jg     402a83 <submitr+0x66a>
  402a00:	48 b8 45 72 72 6f 72 	movabs $0x43203a726f727245,%rax
  402a07:	3a 20 43 
  402a0a:	48 89 03             	mov    %rax,(%rbx)
  402a0d:	48 b8 6c 69 65 6e 74 	movabs $0x6e7520746e65696c,%rax
  402a14:	20 75 6e 
  402a17:	48 89 43 08          	mov    %rax,0x8(%rbx)
  402a1b:	48 b8 61 62 6c 65 20 	movabs $0x206f7420656c6261,%rax
  402a22:	74 6f 20 
  402a25:	48 89 43 10          	mov    %rax,0x10(%rbx)
  402a29:	48 b8 72 65 61 64 20 	movabs $0x6174732064616572,%rax
  402a30:	73 74 61 
  402a33:	48 89 43 18          	mov    %rax,0x18(%rbx)
  402a37:	48 b8 74 75 73 20 6d 	movabs $0x7373656d20737574,%rax
  402a3e:	65 73 73 
  402a41:	48 89 43 20          	mov    %rax,0x20(%rbx)
  402a45:	48 b8 61 67 65 20 66 	movabs $0x6d6f726620656761,%rax
  402a4c:	72 6f 6d 
  402a4f:	48 89 43 28          	mov    %rax,0x28(%rbx)
  402a53:	48 b8 20 72 65 73 75 	movabs $0x20746c7573657220,%rax
  402a5a:	6c 74 20 
  402a5d:	48 89 43 30          	mov    %rax,0x30(%rbx)
  402a61:	c7 43 38 73 65 72 76 	movl   $0x76726573,0x38(%rbx)
  402a68:	66 c7 43 3c 65 72    	movw   $0x7265,0x3c(%rbx)
  402a6e:	c6 43 3e 00          	movb   $0x0,0x3e(%rbx)
  402a72:	89 ef                	mov    %ebp,%edi
  402a74:	e8 b7 e2 ff ff       	callq  400d30 <close@plt>
  402a79:	b8 ff ff ff ff       	mov    $0xffffffff,%eax
  402a7e:	e9 dc 00 00 00       	jmpq   402b5f <submitr+0x746>
  402a83:	44 8b 44 24 1c       	mov    0x1c(%rsp),%r8d
  402a88:	41 81 f8 c8 00 00 00 	cmp    $0xc8,%r8d
  402a8f:	74 37                	je     402ac8 <submitr+0x6af>
  402a91:	4c 8d 8c 24 40 80 00 	lea    0x8040(%rsp),%r9
  402a98:	00 
  402a99:	b9 b8 37 40 00       	mov    $0x4037b8,%ecx
  402a9e:	48 c7 c2 ff ff ff ff 	mov    $0xffffffffffffffff,%rdx
  402aa5:	be 01 00 00 00       	mov    $0x1,%esi
  402aaa:	48 89 df             	mov    %rbx,%rdi
  402aad:	b8 00 00 00 00       	mov    $0x0,%eax
  402ab2:	e8 c9 e3 ff ff       	callq  400e80 <__sprintf_chk@plt>
  402ab7:	89 ef                	mov    %ebp,%edi
  402ab9:	e8 72 e2 ff ff       	callq  400d30 <close@plt>
  402abe:	b8 ff ff ff ff       	mov    $0xffffffff,%eax
  402ac3:	e9 97 00 00 00       	jmpq   402b5f <submitr+0x746>
  402ac8:	48 8d b4 24 40 20 00 	lea    0x2040(%rsp),%rsi
  402acf:	00 
  402ad0:	48 89 df             	mov    %rbx,%rdi
  402ad3:	e8 e8 e1 ff ff       	callq  400cc0 <strcpy@plt>
  402ad8:	89 ef                	mov    %ebp,%edi
  402ada:	e8 51 e2 ff ff       	callq  400d30 <close@plt>
  402adf:	0f b6 03             	movzbl (%rbx),%eax
  402ae2:	ba 4f 00 00 00       	mov    $0x4f,%edx
  402ae7:	29 c2                	sub    %eax,%edx
  402ae9:	75 22                	jne    402b0d <submitr+0x6f4>
  402aeb:	0f b6 4b 01          	movzbl 0x1(%rbx),%ecx
  402aef:	b8 4b 00 00 00       	mov    $0x4b,%eax
  402af4:	29 c8                	sub    %ecx,%eax
  402af6:	75 17                	jne    402b0f <submitr+0x6f6>
  402af8:	0f b6 4b 02          	movzbl 0x2(%rbx),%ecx
  402afc:	b8 0a 00 00 00       	mov    $0xa,%eax
  402b01:	29 c8                	sub    %ecx,%eax
  402b03:	75 0a                	jne    402b0f <submitr+0x6f6>
  402b05:	0f b6 43 03          	movzbl 0x3(%rbx),%eax
  402b09:	f7 d8                	neg    %eax
  402b0b:	eb 02                	jmp    402b0f <submitr+0x6f6>
  402b0d:	89 d0                	mov    %edx,%eax
  402b0f:	85 c0                	test   %eax,%eax
  402b11:	74 40                	je     402b53 <submitr+0x73a>
  402b13:	bf 00 38 40 00       	mov    $0x403800,%edi
  402b18:	b9 05 00 00 00       	mov    $0x5,%ecx
  402b1d:	48 89 de             	mov    %rbx,%rsi
  402b20:	f3 a6                	repz cmpsb %es:(%rdi),%ds:(%rsi)
  402b22:	0f 97 c0             	seta   %al
  402b25:	0f 92 c1             	setb   %cl
  402b28:	29 c8                	sub    %ecx,%eax
  402b2a:	0f be c0             	movsbl %al,%eax
  402b2d:	85 c0                	test   %eax,%eax
  402b2f:	74 2e                	je     402b5f <submitr+0x746>
  402b31:	85 d2                	test   %edx,%edx
  402b33:	75 13                	jne    402b48 <submitr+0x72f>
  402b35:	0f b6 43 01          	movzbl 0x1(%rbx),%eax
  402b39:	ba 4b 00 00 00       	mov    $0x4b,%edx
  402b3e:	29 c2                	sub    %eax,%edx
  402b40:	75 06                	jne    402b48 <submitr+0x72f>
  402b42:	0f b6 53 02          	movzbl 0x2(%rbx),%edx
  402b46:	f7 da                	neg    %edx
  402b48:	85 d2                	test   %edx,%edx
  402b4a:	75 0e                	jne    402b5a <submitr+0x741>
  402b4c:	b8 00 00 00 00       	mov    $0x0,%eax
  402b51:	eb 0c                	jmp    402b5f <submitr+0x746>
  402b53:	b8 00 00 00 00       	mov    $0x0,%eax
  402b58:	eb 05                	jmp    402b5f <submitr+0x746>
  402b5a:	b8 ff ff ff ff       	mov    $0xffffffff,%eax
  402b5f:	48 8b 9c 24 48 a0 00 	mov    0xa048(%rsp),%rbx
  402b66:	00 
  402b67:	64 48 33 1c 25 28 00 	xor    %fs:0x28,%rbx
  402b6e:	00 00 
  402b70:	74 05                	je     402b77 <submitr+0x75e>
  402b72:	e8 79 e1 ff ff       	callq  400cf0 <__stack_chk_fail@plt>
  402b77:	48 81 c4 58 a0 00 00 	add    $0xa058,%rsp
  402b7e:	5b                   	pop    %rbx
  402b7f:	5d                   	pop    %rbp
  402b80:	41 5c                	pop    %r12
  402b82:	41 5d                	pop    %r13
  402b84:	41 5e                	pop    %r14
  402b86:	41 5f                	pop    %r15
  402b88:	c3                   	retq   

0000000000402b89 <init_timeout>:
  402b89:	85 ff                	test   %edi,%edi
  402b8b:	74 23                	je     402bb0 <init_timeout+0x27>
  402b8d:	53                   	push   %rbx
  402b8e:	89 fb                	mov    %edi,%ebx
  402b90:	85 ff                	test   %edi,%edi
  402b92:	79 05                	jns    402b99 <init_timeout+0x10>
  402b94:	bb 00 00 00 00       	mov    $0x0,%ebx
  402b99:	be 4d 21 40 00       	mov    $0x40214d,%esi
  402b9e:	bf 0e 00 00 00       	mov    $0xe,%edi
  402ba3:	e8 b8 e1 ff ff       	callq  400d60 <signal@plt>
  402ba8:	89 df                	mov    %ebx,%edi
  402baa:	e8 71 e1 ff ff       	callq  400d20 <alarm@plt>
  402baf:	5b                   	pop    %rbx
  402bb0:	f3 c3                	repz retq 

0000000000402bb2 <init_driver>:
  402bb2:	55                   	push   %rbp
  402bb3:	53                   	push   %rbx
  402bb4:	48 83 ec 28          	sub    $0x28,%rsp
  402bb8:	48 89 fd             	mov    %rdi,%rbp
  402bbb:	64 48 8b 04 25 28 00 	mov    %fs:0x28,%rax
  402bc2:	00 00 
  402bc4:	48 89 44 24 18       	mov    %rax,0x18(%rsp)
  402bc9:	31 c0                	xor    %eax,%eax
  402bcb:	be 01 00 00 00       	mov    $0x1,%esi
  402bd0:	bf 0d 00 00 00       	mov    $0xd,%edi
  402bd5:	e8 86 e1 ff ff       	callq  400d60 <signal@plt>
  402bda:	be 01 00 00 00       	mov    $0x1,%esi
  402bdf:	bf 1d 00 00 00       	mov    $0x1d,%edi
  402be4:	e8 77 e1 ff ff       	callq  400d60 <signal@plt>
  402be9:	be 01 00 00 00       	mov    $0x1,%esi
  402bee:	bf 1d 00 00 00       	mov    $0x1d,%edi
  402bf3:	e8 68 e1 ff ff       	callq  400d60 <signal@plt>
  402bf8:	ba 00 00 00 00       	mov    $0x0,%edx
  402bfd:	be 01 00 00 00       	mov    $0x1,%esi
  402c02:	bf 02 00 00 00       	mov    $0x2,%edi
  402c07:	e8 84 e2 ff ff       	callq  400e90 <socket@plt>
  402c0c:	85 c0                	test   %eax,%eax
  402c0e:	79 4f                	jns    402c5f <init_driver+0xad>
  402c10:	48 b8 45 72 72 6f 72 	movabs $0x43203a726f727245,%rax
  402c17:	3a 20 43 
  402c1a:	48 89 45 00          	mov    %rax,0x0(%rbp)
  402c1e:	48 b8 6c 69 65 6e 74 	movabs $0x6e7520746e65696c,%rax
  402c25:	20 75 6e 
  402c28:	48 89 45 08          	mov    %rax,0x8(%rbp)
  402c2c:	48 b8 61 62 6c 65 20 	movabs $0x206f7420656c6261,%rax
  402c33:	74 6f 20 
  402c36:	48 89 45 10          	mov    %rax,0x10(%rbp)
  402c3a:	48 b8 63 72 65 61 74 	movabs $0x7320657461657263,%rax
  402c41:	65 20 73 
  402c44:	48 89 45 18          	mov    %rax,0x18(%rbp)
  402c48:	c7 45 20 6f 63 6b 65 	movl   $0x656b636f,0x20(%rbp)
  402c4f:	66 c7 45 24 74 00    	movw   $0x74,0x24(%rbp)
  402c55:	b8 ff ff ff ff       	mov    $0xffffffff,%eax
  402c5a:	e9 2a 01 00 00       	jmpq   402d89 <init_driver+0x1d7>
  402c5f:	89 c3                	mov    %eax,%ebx
  402c61:	bf 05 38 40 00       	mov    $0x403805,%edi
  402c66:	e8 05 e1 ff ff       	callq  400d70 <gethostbyname@plt>
  402c6b:	48 85 c0             	test   %rax,%rax
  402c6e:	75 68                	jne    402cd8 <init_driver+0x126>
  402c70:	48 b8 45 72 72 6f 72 	movabs $0x44203a726f727245,%rax
  402c77:	3a 20 44 
  402c7a:	48 89 45 00          	mov    %rax,0x0(%rbp)
  402c7e:	48 b8 4e 53 20 69 73 	movabs $0x6e7520736920534e,%rax
  402c85:	20 75 6e 
  402c88:	48 89 45 08          	mov    %rax,0x8(%rbp)
  402c8c:	48 b8 61 62 6c 65 20 	movabs $0x206f7420656c6261,%rax
  402c93:	74 6f 20 
  402c96:	48 89 45 10          	mov    %rax,0x10(%rbp)
  402c9a:	48 b8 72 65 73 6f 6c 	movabs $0x2065766c6f736572,%rax
  402ca1:	76 65 20 
  402ca4:	48 89 45 18          	mov    %rax,0x18(%rbp)
  402ca8:	48 b8 73 65 72 76 65 	movabs $0x6120726576726573,%rax
  402caf:	72 20 61 
  402cb2:	48 89 45 20          	mov    %rax,0x20(%rbp)
  402cb6:	c7 45 28 64 64 72 65 	movl   $0x65726464,0x28(%rbp)
  402cbd:	66 c7 45 2c 73 73    	movw   $0x7373,0x2c(%rbp)
  402cc3:	c6 45 2e 00          	movb   $0x0,0x2e(%rbp)
  402cc7:	89 df                	mov    %ebx,%edi
  402cc9:	e8 62 e0 ff ff       	callq  400d30 <close@plt>
  402cce:	b8 ff ff ff ff       	mov    $0xffffffff,%eax
  402cd3:	e9 b1 00 00 00       	jmpq   402d89 <init_driver+0x1d7>
  402cd8:	48 c7 04 24 00 00 00 	movq   $0x0,(%rsp)
  402cdf:	00 
  402ce0:	48 c7 44 24 08 00 00 	movq   $0x0,0x8(%rsp)
  402ce7:	00 00 
  402ce9:	66 c7 04 24 02 00    	movw   $0x2,(%rsp)
  402cef:	48 63 50 14          	movslq 0x14(%rax),%rdx
  402cf3:	48 8b 40 18          	mov    0x18(%rax),%rax
  402cf7:	48 8b 30             	mov    (%rax),%rsi
  402cfa:	48 8d 7c 24 04       	lea    0x4(%rsp),%rdi
  402cff:	b9 0c 00 00 00       	mov    $0xc,%ecx
  402d04:	e8 77 e0 ff ff       	callq  400d80 <__memmove_chk@plt>
  402d09:	66 c7 44 24 02 3c 9a 	movw   $0x9a3c,0x2(%rsp)
  402d10:	ba 10 00 00 00       	mov    $0x10,%edx
  402d15:	48 89 e6             	mov    %rsp,%rsi
  402d18:	89 df                	mov    %ebx,%edi
  402d1a:	e8 41 e1 ff ff       	callq  400e60 <connect@plt>
  402d1f:	85 c0                	test   %eax,%eax
  402d21:	79 50                	jns    402d73 <init_driver+0x1c1>
  402d23:	48 b8 45 72 72 6f 72 	movabs $0x55203a726f727245,%rax
  402d2a:	3a 20 55 
  402d2d:	48 89 45 00          	mov    %rax,0x0(%rbp)
  402d31:	48 b8 6e 61 62 6c 65 	movabs $0x6f7420656c62616e,%rax
  402d38:	20 74 6f 
  402d3b:	48 89 45 08          	mov    %rax,0x8(%rbp)
  402d3f:	48 b8 20 63 6f 6e 6e 	movabs $0x7463656e6e6f6320,%rax
  402d46:	65 63 74 
  402d49:	48 89 45 10          	mov    %rax,0x10(%rbp)
  402d4d:	48 b8 20 74 6f 20 73 	movabs $0x76726573206f7420,%rax
  402d54:	65 72 76 
  402d57:	48 89 45 18          	mov    %rax,0x18(%rbp)
  402d5b:	66 c7 45 20 65 72    	movw   $0x7265,0x20(%rbp)
  402d61:	c6 45 22 00          	movb   $0x0,0x22(%rbp)
  402d65:	89 df                	mov    %ebx,%edi
  402d67:	e8 c4 df ff ff       	callq  400d30 <close@plt>
  402d6c:	b8 ff ff ff ff       	mov    $0xffffffff,%eax
  402d71:	eb 16                	jmp    402d89 <init_driver+0x1d7>
  402d73:	89 df                	mov    %ebx,%edi
  402d75:	e8 b6 df ff ff       	callq  400d30 <close@plt>
  402d7a:	66 c7 45 00 4f 4b    	movw   $0x4b4f,0x0(%rbp)
  402d80:	c6 45 02 00          	movb   $0x0,0x2(%rbp)
  402d84:	b8 00 00 00 00       	mov    $0x0,%eax
  402d89:	48 8b 4c 24 18       	mov    0x18(%rsp),%rcx
  402d8e:	64 48 33 0c 25 28 00 	xor    %fs:0x28,%rcx
  402d95:	00 00 
  402d97:	74 05                	je     402d9e <init_driver+0x1ec>
  402d99:	e8 52 df ff ff       	callq  400cf0 <__stack_chk_fail@plt>
  402d9e:	48 83 c4 28          	add    $0x28,%rsp
  402da2:	5b                   	pop    %rbx
  402da3:	5d                   	pop    %rbp
  402da4:	c3                   	retq   

0000000000402da5 <driver_post>:
  402da5:	53                   	push   %rbx
  402da6:	4c 89 cb             	mov    %r9,%rbx
  402da9:	45 85 c0             	test   %r8d,%r8d
  402dac:	74 27                	je     402dd5 <driver_post+0x30>
  402dae:	48 89 ca             	mov    %rcx,%rdx
  402db1:	be 13 38 40 00       	mov    $0x403813,%esi
  402db6:	bf 01 00 00 00       	mov    $0x1,%edi
  402dbb:	b8 00 00 00 00       	mov    $0x0,%eax
  402dc0:	e8 3b e0 ff ff       	callq  400e00 <__printf_chk@plt>
  402dc5:	66 c7 03 4f 4b       	movw   $0x4b4f,(%rbx)
  402dca:	c6 43 02 00          	movb   $0x0,0x2(%rbx)
  402dce:	b8 00 00 00 00       	mov    $0x0,%eax
  402dd3:	eb 3f                	jmp    402e14 <driver_post+0x6f>
  402dd5:	48 85 ff             	test   %rdi,%rdi
  402dd8:	74 2c                	je     402e06 <driver_post+0x61>
  402dda:	80 3f 00             	cmpb   $0x0,(%rdi)
  402ddd:	74 27                	je     402e06 <driver_post+0x61>
  402ddf:	48 83 ec 08          	sub    $0x8,%rsp
  402de3:	41 51                	push   %r9
  402de5:	49 89 c9             	mov    %rcx,%r9
  402de8:	49 89 d0             	mov    %rdx,%r8
  402deb:	48 89 f9             	mov    %rdi,%rcx
  402dee:	48 89 f2             	mov    %rsi,%rdx
  402df1:	be 9a 3c 00 00       	mov    $0x3c9a,%esi
  402df6:	bf 05 38 40 00       	mov    $0x403805,%edi
  402dfb:	e8 19 f6 ff ff       	callq  402419 <submitr>
  402e00:	48 83 c4 10          	add    $0x10,%rsp
  402e04:	eb 0e                	jmp    402e14 <driver_post+0x6f>
  402e06:	66 c7 03 4f 4b       	movw   $0x4b4f,(%rbx)
  402e0b:	c6 43 02 00          	movb   $0x0,0x2(%rbx)
  402e0f:	b8 00 00 00 00       	mov    $0x0,%eax
  402e14:	5b                   	pop    %rbx
  402e15:	c3                   	retq   

0000000000402e16 <check>:
  402e16:	89 f8                	mov    %edi,%eax
  402e18:	c1 e8 1c             	shr    $0x1c,%eax
  402e1b:	85 c0                	test   %eax,%eax
  402e1d:	74 1d                	je     402e3c <check+0x26>
  402e1f:	b9 00 00 00 00       	mov    $0x0,%ecx
  402e24:	eb 0b                	jmp    402e31 <check+0x1b>
  402e26:	89 f8                	mov    %edi,%eax
  402e28:	d3 e8                	shr    %cl,%eax
  402e2a:	3c 0a                	cmp    $0xa,%al
  402e2c:	74 14                	je     402e42 <check+0x2c>
  402e2e:	83 c1 08             	add    $0x8,%ecx
  402e31:	83 f9 1f             	cmp    $0x1f,%ecx
  402e34:	7e f0                	jle    402e26 <check+0x10>
  402e36:	b8 01 00 00 00       	mov    $0x1,%eax
  402e3b:	c3                   	retq   
  402e3c:	b8 00 00 00 00       	mov    $0x0,%eax
  402e41:	c3                   	retq   
  402e42:	b8 00 00 00 00       	mov    $0x0,%eax
  402e47:	c3                   	retq   

0000000000402e48 <gencookie>:
  402e48:	53                   	push   %rbx
  402e49:	83 c7 01             	add    $0x1,%edi
  402e4c:	e8 4f de ff ff       	callq  400ca0 <srandom@plt>
  402e51:	e8 6a df ff ff       	callq  400dc0 <random@plt>
  402e56:	89 c3                	mov    %eax,%ebx
  402e58:	89 c7                	mov    %eax,%edi
  402e5a:	e8 b7 ff ff ff       	callq  402e16 <check>
  402e5f:	85 c0                	test   %eax,%eax
  402e61:	74 ee                	je     402e51 <gencookie+0x9>
  402e63:	89 d8                	mov    %ebx,%eax
  402e65:	5b                   	pop    %rbx
  402e66:	c3                   	retq   
  402e67:	66 0f 1f 84 00 00 00 	nopw   0x0(%rax,%rax,1)
  402e6e:	00 00 

0000000000402e70 <__libc_csu_init>:
  402e70:	41 57                	push   %r15
  402e72:	41 56                	push   %r14
  402e74:	41 89 ff             	mov    %edi,%r15d
  402e77:	41 55                	push   %r13
  402e79:	41 54                	push   %r12
  402e7b:	4c 8d 25 8e 1f 20 00 	lea    0x201f8e(%rip),%r12        # 604e10 <__frame_dummy_init_array_entry>
  402e82:	55                   	push   %rbp
  402e83:	48 8d 2d 8e 1f 20 00 	lea    0x201f8e(%rip),%rbp        # 604e18 <__do_global_dtors_aux_fini_array_entry>
  402e8a:	53                   	push   %rbx
  402e8b:	49 89 f6             	mov    %rsi,%r14
  402e8e:	49 89 d5             	mov    %rdx,%r13
  402e91:	4c 29 e5             	sub    %r12,%rbp
  402e94:	48 83 ec 08          	sub    $0x8,%rsp
  402e98:	48 c1 fd 03          	sar    $0x3,%rbp
  402e9c:	e8 a7 dd ff ff       	callq  400c48 <_init>
  402ea1:	48 85 ed             	test   %rbp,%rbp
  402ea4:	74 20                	je     402ec6 <__libc_csu_init+0x56>
  402ea6:	31 db                	xor    %ebx,%ebx
  402ea8:	0f 1f 84 00 00 00 00 	nopl   0x0(%rax,%rax,1)
  402eaf:	00 
  402eb0:	4c 89 ea             	mov    %r13,%rdx
  402eb3:	4c 89 f6             	mov    %r14,%rsi
  402eb6:	44 89 ff             	mov    %r15d,%edi
  402eb9:	41 ff 14 dc          	callq  *(%r12,%rbx,8)
  402ebd:	48 83 c3 01          	add    $0x1,%rbx
  402ec1:	48 39 eb             	cmp    %rbp,%rbx
  402ec4:	75 ea                	jne    402eb0 <__libc_csu_init+0x40>
  402ec6:	48 83 c4 08          	add    $0x8,%rsp
  402eca:	5b                   	pop    %rbx
  402ecb:	5d                   	pop    %rbp
  402ecc:	41 5c                	pop    %r12
  402ece:	41 5d                	pop    %r13
  402ed0:	41 5e                	pop    %r14
  402ed2:	41 5f                	pop    %r15
  402ed4:	c3                   	retq   
  402ed5:	90                   	nop
  402ed6:	66 2e 0f 1f 84 00 00 	nopw   %cs:0x0(%rax,%rax,1)
  402edd:	00 00 00 

0000000000402ee0 <__libc_csu_fini>:
  402ee0:	f3 c3                	repz retq 

Disassembly of section .fini:

0000000000402ee4 <_fini>:
  402ee4:	48 83 ec 08          	sub    $0x8,%rsp
  402ee8:	48 83 c4 08          	add    $0x8,%rsp
  402eec:	c3                   	retq   
