
rtarget:     file format elf64-x86-64


Disassembly of section .init:

0000000000400c48 <_init>:
  400c48:	48 83 ec 08          	sub    $0x8,%rsp
  400c4c:	48 8b 05 a5 43 20 00 	mov    0x2043a5(%rip),%rax        # 604ff8 <__gmon_start__>
  400c53:	48 85 c0             	test   %rax,%rax
  400c56:	74 05                	je     400c5d <_init+0x15>
  400c58:	e8 43 02 00 00       	callq  400ea0 <__gmon_start__@plt>
  400c5d:	48 83 c4 08          	add    $0x8,%rsp
  400c61:	c3                   	retq   

Disassembly of section .plt:

0000000000400c70 <.plt>:
  400c70:	ff 35 92 43 20 00    	pushq  0x204392(%rip)        # 605008 <_GLOBAL_OFFSET_TABLE_+0x8>
  400c76:	ff 25 94 43 20 00    	jmpq   *0x204394(%rip)        # 605010 <_GLOBAL_OFFSET_TABLE_+0x10>
  400c7c:	0f 1f 40 00          	nopl   0x0(%rax)

0000000000400c80 <strcasecmp@plt>:
  400c80:	ff 25 92 43 20 00    	jmpq   *0x204392(%rip)        # 605018 <strcasecmp@GLIBC_2.2.5>
  400c86:	68 00 00 00 00       	pushq  $0x0
  400c8b:	e9 e0 ff ff ff       	jmpq   400c70 <.plt>

0000000000400c90 <__errno_location@plt>:
  400c90:	ff 25 8a 43 20 00    	jmpq   *0x20438a(%rip)        # 605020 <__errno_location@GLIBC_2.2.5>
  400c96:	68 01 00 00 00       	pushq  $0x1
  400c9b:	e9 d0 ff ff ff       	jmpq   400c70 <.plt>

0000000000400ca0 <srandom@plt>:
  400ca0:	ff 25 82 43 20 00    	jmpq   *0x204382(%rip)        # 605028 <srandom@GLIBC_2.2.5>
  400ca6:	68 02 00 00 00       	pushq  $0x2
  400cab:	e9 c0 ff ff ff       	jmpq   400c70 <.plt>

0000000000400cb0 <strncmp@plt>:
  400cb0:	ff 25 7a 43 20 00    	jmpq   *0x20437a(%rip)        # 605030 <strncmp@GLIBC_2.2.5>
  400cb6:	68 03 00 00 00       	pushq  $0x3
  400cbb:	e9 b0 ff ff ff       	jmpq   400c70 <.plt>

0000000000400cc0 <strcpy@plt>:
  400cc0:	ff 25 72 43 20 00    	jmpq   *0x204372(%rip)        # 605038 <strcpy@GLIBC_2.2.5>
  400cc6:	68 04 00 00 00       	pushq  $0x4
  400ccb:	e9 a0 ff ff ff       	jmpq   400c70 <.plt>

0000000000400cd0 <puts@plt>:
  400cd0:	ff 25 6a 43 20 00    	jmpq   *0x20436a(%rip)        # 605040 <puts@GLIBC_2.2.5>
  400cd6:	68 05 00 00 00       	pushq  $0x5
  400cdb:	e9 90 ff ff ff       	jmpq   400c70 <.plt>

0000000000400ce0 <write@plt>:
  400ce0:	ff 25 62 43 20 00    	jmpq   *0x204362(%rip)        # 605048 <write@GLIBC_2.2.5>
  400ce6:	68 06 00 00 00       	pushq  $0x6
  400ceb:	e9 80 ff ff ff       	jmpq   400c70 <.plt>

0000000000400cf0 <__stack_chk_fail@plt>:
  400cf0:	ff 25 5a 43 20 00    	jmpq   *0x20435a(%rip)        # 605050 <__stack_chk_fail@GLIBC_2.4>
  400cf6:	68 07 00 00 00       	pushq  $0x7
  400cfb:	e9 70 ff ff ff       	jmpq   400c70 <.plt>

0000000000400d00 <mmap@plt>:
  400d00:	ff 25 52 43 20 00    	jmpq   *0x204352(%rip)        # 605058 <mmap@GLIBC_2.2.5>
  400d06:	68 08 00 00 00       	pushq  $0x8
  400d0b:	e9 60 ff ff ff       	jmpq   400c70 <.plt>

0000000000400d10 <memset@plt>:
  400d10:	ff 25 4a 43 20 00    	jmpq   *0x20434a(%rip)        # 605060 <memset@GLIBC_2.2.5>
  400d16:	68 09 00 00 00       	pushq  $0x9
  400d1b:	e9 50 ff ff ff       	jmpq   400c70 <.plt>

0000000000400d20 <alarm@plt>:
  400d20:	ff 25 42 43 20 00    	jmpq   *0x204342(%rip)        # 605068 <alarm@GLIBC_2.2.5>
  400d26:	68 0a 00 00 00       	pushq  $0xa
  400d2b:	e9 40 ff ff ff       	jmpq   400c70 <.plt>

0000000000400d30 <close@plt>:
  400d30:	ff 25 3a 43 20 00    	jmpq   *0x20433a(%rip)        # 605070 <close@GLIBC_2.2.5>
  400d36:	68 0b 00 00 00       	pushq  $0xb
  400d3b:	e9 30 ff ff ff       	jmpq   400c70 <.plt>

0000000000400d40 <read@plt>:
  400d40:	ff 25 32 43 20 00    	jmpq   *0x204332(%rip)        # 605078 <read@GLIBC_2.2.5>
  400d46:	68 0c 00 00 00       	pushq  $0xc
  400d4b:	e9 20 ff ff ff       	jmpq   400c70 <.plt>

0000000000400d50 <__libc_start_main@plt>:
  400d50:	ff 25 2a 43 20 00    	jmpq   *0x20432a(%rip)        # 605080 <__libc_start_main@GLIBC_2.2.5>
  400d56:	68 0d 00 00 00       	pushq  $0xd
  400d5b:	e9 10 ff ff ff       	jmpq   400c70 <.plt>

0000000000400d60 <signal@plt>:
  400d60:	ff 25 22 43 20 00    	jmpq   *0x204322(%rip)        # 605088 <signal@GLIBC_2.2.5>
  400d66:	68 0e 00 00 00       	pushq  $0xe
  400d6b:	e9 00 ff ff ff       	jmpq   400c70 <.plt>

0000000000400d70 <gethostbyname@plt>:
  400d70:	ff 25 1a 43 20 00    	jmpq   *0x20431a(%rip)        # 605090 <gethostbyname@GLIBC_2.2.5>
  400d76:	68 0f 00 00 00       	pushq  $0xf
  400d7b:	e9 f0 fe ff ff       	jmpq   400c70 <.plt>

0000000000400d80 <__memmove_chk@plt>:
  400d80:	ff 25 12 43 20 00    	jmpq   *0x204312(%rip)        # 605098 <__memmove_chk@GLIBC_2.3.4>
  400d86:	68 10 00 00 00       	pushq  $0x10
  400d8b:	e9 e0 fe ff ff       	jmpq   400c70 <.plt>

0000000000400d90 <strtol@plt>:
  400d90:	ff 25 0a 43 20 00    	jmpq   *0x20430a(%rip)        # 6050a0 <strtol@GLIBC_2.2.5>
  400d96:	68 11 00 00 00       	pushq  $0x11
  400d9b:	e9 d0 fe ff ff       	jmpq   400c70 <.plt>

0000000000400da0 <memcpy@plt>:
  400da0:	ff 25 02 43 20 00    	jmpq   *0x204302(%rip)        # 6050a8 <memcpy@GLIBC_2.14>
  400da6:	68 12 00 00 00       	pushq  $0x12
  400dab:	e9 c0 fe ff ff       	jmpq   400c70 <.plt>

0000000000400db0 <time@plt>:
  400db0:	ff 25 fa 42 20 00    	jmpq   *0x2042fa(%rip)        # 6050b0 <time@GLIBC_2.2.5>
  400db6:	68 13 00 00 00       	pushq  $0x13
  400dbb:	e9 b0 fe ff ff       	jmpq   400c70 <.plt>

0000000000400dc0 <random@plt>:
  400dc0:	ff 25 f2 42 20 00    	jmpq   *0x2042f2(%rip)        # 6050b8 <random@GLIBC_2.2.5>
  400dc6:	68 14 00 00 00       	pushq  $0x14
  400dcb:	e9 a0 fe ff ff       	jmpq   400c70 <.plt>

0000000000400dd0 <_IO_getc@plt>:
  400dd0:	ff 25 ea 42 20 00    	jmpq   *0x2042ea(%rip)        # 6050c0 <_IO_getc@GLIBC_2.2.5>
  400dd6:	68 15 00 00 00       	pushq  $0x15
  400ddb:	e9 90 fe ff ff       	jmpq   400c70 <.plt>

0000000000400de0 <__isoc99_sscanf@plt>:
  400de0:	ff 25 e2 42 20 00    	jmpq   *0x2042e2(%rip)        # 6050c8 <__isoc99_sscanf@GLIBC_2.7>
  400de6:	68 16 00 00 00       	pushq  $0x16
  400deb:	e9 80 fe ff ff       	jmpq   400c70 <.plt>

0000000000400df0 <munmap@plt>:
  400df0:	ff 25 da 42 20 00    	jmpq   *0x2042da(%rip)        # 6050d0 <munmap@GLIBC_2.2.5>
  400df6:	68 17 00 00 00       	pushq  $0x17
  400dfb:	e9 70 fe ff ff       	jmpq   400c70 <.plt>

0000000000400e00 <__printf_chk@plt>:
  400e00:	ff 25 d2 42 20 00    	jmpq   *0x2042d2(%rip)        # 6050d8 <__printf_chk@GLIBC_2.3.4>
  400e06:	68 18 00 00 00       	pushq  $0x18
  400e0b:	e9 60 fe ff ff       	jmpq   400c70 <.plt>

0000000000400e10 <fopen@plt>:
  400e10:	ff 25 ca 42 20 00    	jmpq   *0x2042ca(%rip)        # 6050e0 <fopen@GLIBC_2.2.5>
  400e16:	68 19 00 00 00       	pushq  $0x19
  400e1b:	e9 50 fe ff ff       	jmpq   400c70 <.plt>

0000000000400e20 <getopt@plt>:
  400e20:	ff 25 c2 42 20 00    	jmpq   *0x2042c2(%rip)        # 6050e8 <getopt@GLIBC_2.2.5>
  400e26:	68 1a 00 00 00       	pushq  $0x1a
  400e2b:	e9 40 fe ff ff       	jmpq   400c70 <.plt>

0000000000400e30 <strtoul@plt>:
  400e30:	ff 25 ba 42 20 00    	jmpq   *0x2042ba(%rip)        # 6050f0 <strtoul@GLIBC_2.2.5>
  400e36:	68 1b 00 00 00       	pushq  $0x1b
  400e3b:	e9 30 fe ff ff       	jmpq   400c70 <.plt>

0000000000400e40 <gethostname@plt>:
  400e40:	ff 25 b2 42 20 00    	jmpq   *0x2042b2(%rip)        # 6050f8 <gethostname@GLIBC_2.2.5>
  400e46:	68 1c 00 00 00       	pushq  $0x1c
  400e4b:	e9 20 fe ff ff       	jmpq   400c70 <.plt>

0000000000400e50 <exit@plt>:
  400e50:	ff 25 aa 42 20 00    	jmpq   *0x2042aa(%rip)        # 605100 <exit@GLIBC_2.2.5>
  400e56:	68 1d 00 00 00       	pushq  $0x1d
  400e5b:	e9 10 fe ff ff       	jmpq   400c70 <.plt>

0000000000400e60 <connect@plt>:
  400e60:	ff 25 a2 42 20 00    	jmpq   *0x2042a2(%rip)        # 605108 <connect@GLIBC_2.2.5>
  400e66:	68 1e 00 00 00       	pushq  $0x1e
  400e6b:	e9 00 fe ff ff       	jmpq   400c70 <.plt>

0000000000400e70 <__fprintf_chk@plt>:
  400e70:	ff 25 9a 42 20 00    	jmpq   *0x20429a(%rip)        # 605110 <__fprintf_chk@GLIBC_2.3.4>
  400e76:	68 1f 00 00 00       	pushq  $0x1f
  400e7b:	e9 f0 fd ff ff       	jmpq   400c70 <.plt>

0000000000400e80 <__sprintf_chk@plt>:
  400e80:	ff 25 92 42 20 00    	jmpq   *0x204292(%rip)        # 605118 <__sprintf_chk@GLIBC_2.3.4>
  400e86:	68 20 00 00 00       	pushq  $0x20
  400e8b:	e9 e0 fd ff ff       	jmpq   400c70 <.plt>

0000000000400e90 <socket@plt>:
  400e90:	ff 25 8a 42 20 00    	jmpq   *0x20428a(%rip)        # 605120 <socket@GLIBC_2.2.5>
  400e96:	68 21 00 00 00       	pushq  $0x21
  400e9b:	e9 d0 fd ff ff       	jmpq   400c70 <.plt>

Disassembly of section .plt.got:

0000000000400ea0 <__gmon_start__@plt>:
  400ea0:	ff 25 52 41 20 00    	jmpq   *0x204152(%rip)        # 604ff8 <__gmon_start__>
  400ea6:	66 90                	xchg   %ax,%ax

Disassembly of section .text:

0000000000400eb0 <_start>:
  400eb0:	31 ed                	xor    %ebp,%ebp
  400eb2:	49 89 d1             	mov    %rdx,%r9
  400eb5:	5e                   	pop    %rsi
  400eb6:	48 89 e2             	mov    %rsp,%rdx
  400eb9:	48 83 e4 f0          	and    $0xfffffffffffffff0,%rsp
  400ebd:	50                   	push   %rax
  400ebe:	54                   	push   %rsp
  400ebf:	49 c7 c0 00 30 40 00 	mov    $0x403000,%r8
  400ec6:	48 c7 c1 90 2f 40 00 	mov    $0x402f90,%rcx
  400ecd:	48 c7 c7 b5 11 40 00 	mov    $0x4011b5,%rdi
  400ed4:	e8 77 fe ff ff       	callq  400d50 <__libc_start_main@plt>
  400ed9:	f4                   	hlt    
  400eda:	66 0f 1f 44 00 00    	nopw   0x0(%rax,%rax,1)

0000000000400ee0 <deregister_tm_clones>:
  400ee0:	b8 b7 54 60 00       	mov    $0x6054b7,%eax
  400ee5:	55                   	push   %rbp
  400ee6:	48 2d b0 54 60 00    	sub    $0x6054b0,%rax
  400eec:	48 83 f8 0e          	cmp    $0xe,%rax
  400ef0:	48 89 e5             	mov    %rsp,%rbp
  400ef3:	76 1b                	jbe    400f10 <deregister_tm_clones+0x30>
  400ef5:	b8 00 00 00 00       	mov    $0x0,%eax
  400efa:	48 85 c0             	test   %rax,%rax
  400efd:	74 11                	je     400f10 <deregister_tm_clones+0x30>
  400eff:	5d                   	pop    %rbp
  400f00:	bf b0 54 60 00       	mov    $0x6054b0,%edi
  400f05:	ff e0                	jmpq   *%rax
  400f07:	66 0f 1f 84 00 00 00 	nopw   0x0(%rax,%rax,1)
  400f0e:	00 00 
  400f10:	5d                   	pop    %rbp
  400f11:	c3                   	retq   
  400f12:	0f 1f 40 00          	nopl   0x0(%rax)
  400f16:	66 2e 0f 1f 84 00 00 	nopw   %cs:0x0(%rax,%rax,1)
  400f1d:	00 00 00 

0000000000400f20 <register_tm_clones>:
  400f20:	be b0 54 60 00       	mov    $0x6054b0,%esi
  400f25:	55                   	push   %rbp
  400f26:	48 81 ee b0 54 60 00 	sub    $0x6054b0,%rsi
  400f2d:	48 c1 fe 03          	sar    $0x3,%rsi
  400f31:	48 89 e5             	mov    %rsp,%rbp
  400f34:	48 89 f0             	mov    %rsi,%rax
  400f37:	48 c1 e8 3f          	shr    $0x3f,%rax
  400f3b:	48 01 c6             	add    %rax,%rsi
  400f3e:	48 d1 fe             	sar    %rsi
  400f41:	74 15                	je     400f58 <register_tm_clones+0x38>
  400f43:	b8 00 00 00 00       	mov    $0x0,%eax
  400f48:	48 85 c0             	test   %rax,%rax
  400f4b:	74 0b                	je     400f58 <register_tm_clones+0x38>
  400f4d:	5d                   	pop    %rbp
  400f4e:	bf b0 54 60 00       	mov    $0x6054b0,%edi
  400f53:	ff e0                	jmpq   *%rax
  400f55:	0f 1f 00             	nopl   (%rax)
  400f58:	5d                   	pop    %rbp
  400f59:	c3                   	retq   
  400f5a:	66 0f 1f 44 00 00    	nopw   0x0(%rax,%rax,1)

0000000000400f60 <__do_global_dtors_aux>:
  400f60:	80 3d 81 45 20 00 00 	cmpb   $0x0,0x204581(%rip)        # 6054e8 <completed.7585>
  400f67:	75 11                	jne    400f7a <__do_global_dtors_aux+0x1a>
  400f69:	55                   	push   %rbp
  400f6a:	48 89 e5             	mov    %rsp,%rbp
  400f6d:	e8 6e ff ff ff       	callq  400ee0 <deregister_tm_clones>
  400f72:	5d                   	pop    %rbp
  400f73:	c6 05 6e 45 20 00 01 	movb   $0x1,0x20456e(%rip)        # 6054e8 <completed.7585>
  400f7a:	f3 c3                	repz retq 
  400f7c:	0f 1f 40 00          	nopl   0x0(%rax)

0000000000400f80 <frame_dummy>:
  400f80:	bf 20 4e 60 00       	mov    $0x604e20,%edi
  400f85:	48 83 3f 00          	cmpq   $0x0,(%rdi)
  400f89:	75 05                	jne    400f90 <frame_dummy+0x10>
  400f8b:	eb 93                	jmp    400f20 <register_tm_clones>
  400f8d:	0f 1f 00             	nopl   (%rax)
  400f90:	b8 00 00 00 00       	mov    $0x0,%eax
  400f95:	48 85 c0             	test   %rax,%rax
  400f98:	74 f1                	je     400f8b <frame_dummy+0xb>
  400f9a:	55                   	push   %rbp
  400f9b:	48 89 e5             	mov    %rsp,%rbp
  400f9e:	ff d0                	callq  *%rax
  400fa0:	5d                   	pop    %rbp
  400fa1:	e9 7a ff ff ff       	jmpq   400f20 <register_tm_clones>

0000000000400fa6 <usage>:
  400fa6:	48 83 ec 08          	sub    $0x8,%rsp
  400faa:	48 89 fa             	mov    %rdi,%rdx
  400fad:	83 3d 74 45 20 00 00 	cmpl   $0x0,0x204574(%rip)        # 605528 <is_checker>
  400fb4:	74 3e                	je     400ff4 <usage+0x4e>
  400fb6:	be 18 30 40 00       	mov    $0x403018,%esi
  400fbb:	bf 01 00 00 00       	mov    $0x1,%edi
  400fc0:	b8 00 00 00 00       	mov    $0x0,%eax
  400fc5:	e8 36 fe ff ff       	callq  400e00 <__printf_chk@plt>
  400fca:	bf 50 30 40 00       	mov    $0x403050,%edi
  400fcf:	e8 fc fc ff ff       	callq  400cd0 <puts@plt>
  400fd4:	bf c8 31 40 00       	mov    $0x4031c8,%edi
  400fd9:	e8 f2 fc ff ff       	callq  400cd0 <puts@plt>
  400fde:	bf 78 30 40 00       	mov    $0x403078,%edi
  400fe3:	e8 e8 fc ff ff       	callq  400cd0 <puts@plt>
  400fe8:	bf e2 31 40 00       	mov    $0x4031e2,%edi
  400fed:	e8 de fc ff ff       	callq  400cd0 <puts@plt>
  400ff2:	eb 32                	jmp    401026 <usage+0x80>
  400ff4:	be fe 31 40 00       	mov    $0x4031fe,%esi
  400ff9:	bf 01 00 00 00       	mov    $0x1,%edi
  400ffe:	b8 00 00 00 00       	mov    $0x0,%eax
  401003:	e8 f8 fd ff ff       	callq  400e00 <__printf_chk@plt>
  401008:	bf a0 30 40 00       	mov    $0x4030a0,%edi
  40100d:	e8 be fc ff ff       	callq  400cd0 <puts@plt>
  401012:	bf c8 30 40 00       	mov    $0x4030c8,%edi
  401017:	e8 b4 fc ff ff       	callq  400cd0 <puts@plt>
  40101c:	bf 1c 32 40 00       	mov    $0x40321c,%edi
  401021:	e8 aa fc ff ff       	callq  400cd0 <puts@plt>
  401026:	bf 00 00 00 00       	mov    $0x0,%edi
  40102b:	e8 20 fe ff ff       	callq  400e50 <exit@plt>

0000000000401030 <initialize_target>:
  401030:	55                   	push   %rbp
  401031:	53                   	push   %rbx
  401032:	48 81 ec 18 21 00 00 	sub    $0x2118,%rsp
  401039:	89 f5                	mov    %esi,%ebp
  40103b:	64 48 8b 04 25 28 00 	mov    %fs:0x28,%rax
  401042:	00 00 
  401044:	48 89 84 24 08 21 00 	mov    %rax,0x2108(%rsp)
  40104b:	00 
  40104c:	31 c0                	xor    %eax,%eax
  40104e:	89 3d c4 44 20 00    	mov    %edi,0x2044c4(%rip)        # 605518 <check_level>
  401054:	8b 3d 0e 41 20 00    	mov    0x20410e(%rip),%edi        # 605168 <target_id>
  40105a:	e8 10 1f 00 00       	callq  402f6f <gencookie>
  40105f:	89 05 bf 44 20 00    	mov    %eax,0x2044bf(%rip)        # 605524 <cookie>
  401065:	89 c7                	mov    %eax,%edi
  401067:	e8 03 1f 00 00       	callq  402f6f <gencookie>
  40106c:	89 05 ae 44 20 00    	mov    %eax,0x2044ae(%rip)        # 605520 <authkey>
  401072:	8b 05 f0 40 20 00    	mov    0x2040f0(%rip),%eax        # 605168 <target_id>
  401078:	8d 78 01             	lea    0x1(%rax),%edi
  40107b:	e8 20 fc ff ff       	callq  400ca0 <srandom@plt>
  401080:	e8 3b fd ff ff       	callq  400dc0 <random@plt>
  401085:	89 c7                	mov    %eax,%edi
  401087:	e8 03 03 00 00       	callq  40138f <scramble>
  40108c:	89 c3                	mov    %eax,%ebx
  40108e:	85 ed                	test   %ebp,%ebp
  401090:	74 18                	je     4010aa <initialize_target+0x7a>
  401092:	bf 00 00 00 00       	mov    $0x0,%edi
  401097:	e8 14 fd ff ff       	callq  400db0 <time@plt>
  40109c:	89 c7                	mov    %eax,%edi
  40109e:	e8 fd fb ff ff       	callq  400ca0 <srandom@plt>
  4010a3:	e8 18 fd ff ff       	callq  400dc0 <random@plt>
  4010a8:	eb 05                	jmp    4010af <initialize_target+0x7f>
  4010aa:	b8 00 00 00 00       	mov    $0x0,%eax
  4010af:	01 c3                	add    %eax,%ebx
  4010b1:	0f b7 db             	movzwl %bx,%ebx
  4010b4:	8d 04 dd 00 01 00 00 	lea    0x100(,%rbx,8),%eax
  4010bb:	89 c0                	mov    %eax,%eax
  4010bd:	48 89 05 dc 43 20 00 	mov    %rax,0x2043dc(%rip)        # 6054a0 <buf_offset>
  4010c4:	c6 05 7d 50 20 00 72 	movb   $0x72,0x20507d(%rip)        # 606148 <target_prefix>
  4010cb:	83 3d d6 43 20 00 00 	cmpl   $0x0,0x2043d6(%rip)        # 6054a8 <notify>
  4010d2:	0f 84 bb 00 00 00    	je     401193 <initialize_target+0x163>
  4010d8:	83 3d 49 44 20 00 00 	cmpl   $0x0,0x204449(%rip)        # 605528 <is_checker>
  4010df:	0f 85 ae 00 00 00    	jne    401193 <initialize_target+0x163>
  4010e5:	be 00 01 00 00       	mov    $0x100,%esi
  4010ea:	48 89 e7             	mov    %rsp,%rdi
  4010ed:	e8 4e fd ff ff       	callq  400e40 <gethostname@plt>
  4010f2:	85 c0                	test   %eax,%eax
  4010f4:	74 25                	je     40111b <initialize_target+0xeb>
  4010f6:	bf f8 30 40 00       	mov    $0x4030f8,%edi
  4010fb:	e8 d0 fb ff ff       	callq  400cd0 <puts@plt>
  401100:	bf 08 00 00 00       	mov    $0x8,%edi
  401105:	e8 46 fd ff ff       	callq  400e50 <exit@plt>
  40110a:	48 89 e6             	mov    %rsp,%rsi
  40110d:	e8 6e fb ff ff       	callq  400c80 <strcasecmp@plt>
  401112:	85 c0                	test   %eax,%eax
  401114:	74 21                	je     401137 <initialize_target+0x107>
  401116:	83 c3 01             	add    $0x1,%ebx
  401119:	eb 05                	jmp    401120 <initialize_target+0xf0>
  40111b:	bb 00 00 00 00       	mov    $0x0,%ebx
  401120:	48 63 c3             	movslq %ebx,%rax
  401123:	48 8b 3c c5 80 51 60 	mov    0x605180(,%rax,8),%rdi
  40112a:	00 
  40112b:	48 85 ff             	test   %rdi,%rdi
  40112e:	75 da                	jne    40110a <initialize_target+0xda>
  401130:	b8 00 00 00 00       	mov    $0x0,%eax
  401135:	eb 05                	jmp    40113c <initialize_target+0x10c>
  401137:	b8 01 00 00 00       	mov    $0x1,%eax
  40113c:	85 c0                	test   %eax,%eax
  40113e:	75 1c                	jne    40115c <initialize_target+0x12c>
  401140:	48 89 e2             	mov    %rsp,%rdx
  401143:	be 30 31 40 00       	mov    $0x403130,%esi
  401148:	bf 01 00 00 00       	mov    $0x1,%edi
  40114d:	e8 ae fc ff ff       	callq  400e00 <__printf_chk@plt>
  401152:	bf 08 00 00 00       	mov    $0x8,%edi
  401157:	e8 f4 fc ff ff       	callq  400e50 <exit@plt>
  40115c:	48 8d bc 24 00 01 00 	lea    0x100(%rsp),%rdi
  401163:	00 
  401164:	e8 70 1b 00 00       	callq  402cd9 <init_driver>
  401169:	85 c0                	test   %eax,%eax
  40116b:	79 26                	jns    401193 <initialize_target+0x163>
  40116d:	48 8d 94 24 00 01 00 	lea    0x100(%rsp),%rdx
  401174:	00 
  401175:	be 70 31 40 00       	mov    $0x403170,%esi
  40117a:	bf 01 00 00 00       	mov    $0x1,%edi
  40117f:	b8 00 00 00 00       	mov    $0x0,%eax
  401184:	e8 77 fc ff ff       	callq  400e00 <__printf_chk@plt>
  401189:	bf 08 00 00 00       	mov    $0x8,%edi
  40118e:	e8 bd fc ff ff       	callq  400e50 <exit@plt>
  401193:	48 8b 84 24 08 21 00 	mov    0x2108(%rsp),%rax
  40119a:	00 
  40119b:	64 48 33 04 25 28 00 	xor    %fs:0x28,%rax
  4011a2:	00 00 
  4011a4:	74 05                	je     4011ab <initialize_target+0x17b>
  4011a6:	e8 45 fb ff ff       	callq  400cf0 <__stack_chk_fail@plt>
  4011ab:	48 81 c4 18 21 00 00 	add    $0x2118,%rsp
  4011b2:	5b                   	pop    %rbx
  4011b3:	5d                   	pop    %rbp
  4011b4:	c3                   	retq   

00000000004011b5 <main>:
  4011b5:	41 56                	push   %r14
  4011b7:	41 55                	push   %r13
  4011b9:	41 54                	push   %r12
  4011bb:	55                   	push   %rbp
  4011bc:	53                   	push   %rbx
  4011bd:	41 89 fc             	mov    %edi,%r12d
  4011c0:	48 89 f3             	mov    %rsi,%rbx
  4011c3:	be 14 20 40 00       	mov    $0x402014,%esi
  4011c8:	bf 0b 00 00 00       	mov    $0xb,%edi
  4011cd:	e8 8e fb ff ff       	callq  400d60 <signal@plt>
  4011d2:	be c6 1f 40 00       	mov    $0x401fc6,%esi
  4011d7:	bf 07 00 00 00       	mov    $0x7,%edi
  4011dc:	e8 7f fb ff ff       	callq  400d60 <signal@plt>
  4011e1:	be 62 20 40 00       	mov    $0x402062,%esi
  4011e6:	bf 04 00 00 00       	mov    $0x4,%edi
  4011eb:	e8 70 fb ff ff       	callq  400d60 <signal@plt>
  4011f0:	83 3d 31 43 20 00 00 	cmpl   $0x0,0x204331(%rip)        # 605528 <is_checker>
  4011f7:	74 20                	je     401219 <main+0x64>
  4011f9:	be b0 20 40 00       	mov    $0x4020b0,%esi
  4011fe:	bf 0e 00 00 00       	mov    $0xe,%edi
  401203:	e8 58 fb ff ff       	callq  400d60 <signal@plt>
  401208:	bf 05 00 00 00       	mov    $0x5,%edi
  40120d:	e8 0e fb ff ff       	callq  400d20 <alarm@plt>
  401212:	bd 3a 32 40 00       	mov    $0x40323a,%ebp
  401217:	eb 05                	jmp    40121e <main+0x69>
  401219:	bd 35 32 40 00       	mov    $0x403235,%ebp
  40121e:	48 8b 05 9b 42 20 00 	mov    0x20429b(%rip),%rax        # 6054c0 <stdin@@GLIBC_2.2.5>
  401225:	48 89 05 e4 42 20 00 	mov    %rax,0x2042e4(%rip)        # 605510 <infile>
  40122c:	41 bd 00 00 00 00    	mov    $0x0,%r13d
  401232:	41 be 00 00 00 00    	mov    $0x0,%r14d
  401238:	e9 c6 00 00 00       	jmpq   401303 <main+0x14e>
  40123d:	83 e8 61             	sub    $0x61,%eax
  401240:	3c 10                	cmp    $0x10,%al
  401242:	0f 87 9c 00 00 00    	ja     4012e4 <main+0x12f>
  401248:	0f b6 c0             	movzbl %al,%eax
  40124b:	ff 24 c5 80 32 40 00 	jmpq   *0x403280(,%rax,8)
  401252:	48 8b 3b             	mov    (%rbx),%rdi
  401255:	e8 4c fd ff ff       	callq  400fa6 <usage>
  40125a:	be 37 34 40 00       	mov    $0x403437,%esi
  40125f:	48 8b 3d 62 42 20 00 	mov    0x204262(%rip),%rdi        # 6054c8 <optarg@@GLIBC_2.2.5>
  401266:	e8 a5 fb ff ff       	callq  400e10 <fopen@plt>
  40126b:	48 89 05 9e 42 20 00 	mov    %rax,0x20429e(%rip)        # 605510 <infile>
  401272:	48 85 c0             	test   %rax,%rax
  401275:	0f 85 88 00 00 00    	jne    401303 <main+0x14e>
  40127b:	48 8b 0d 46 42 20 00 	mov    0x204246(%rip),%rcx        # 6054c8 <optarg@@GLIBC_2.2.5>
  401282:	ba 42 32 40 00       	mov    $0x403242,%edx
  401287:	be 01 00 00 00       	mov    $0x1,%esi
  40128c:	48 8b 3d 4d 42 20 00 	mov    0x20424d(%rip),%rdi        # 6054e0 <stderr@@GLIBC_2.2.5>
  401293:	e8 d8 fb ff ff       	callq  400e70 <__fprintf_chk@plt>
  401298:	b8 01 00 00 00       	mov    $0x1,%eax
  40129d:	e9 e4 00 00 00       	jmpq   401386 <main+0x1d1>
  4012a2:	ba 10 00 00 00       	mov    $0x10,%edx
  4012a7:	be 00 00 00 00       	mov    $0x0,%esi
  4012ac:	48 8b 3d 15 42 20 00 	mov    0x204215(%rip),%rdi        # 6054c8 <optarg@@GLIBC_2.2.5>
  4012b3:	e8 78 fb ff ff       	callq  400e30 <strtoul@plt>
  4012b8:	41 89 c6             	mov    %eax,%r14d
  4012bb:	eb 46                	jmp    401303 <main+0x14e>
  4012bd:	ba 0a 00 00 00       	mov    $0xa,%edx
  4012c2:	be 00 00 00 00       	mov    $0x0,%esi
  4012c7:	48 8b 3d fa 41 20 00 	mov    0x2041fa(%rip),%rdi        # 6054c8 <optarg@@GLIBC_2.2.5>
  4012ce:	e8 bd fa ff ff       	callq  400d90 <strtol@plt>
  4012d3:	41 89 c5             	mov    %eax,%r13d
  4012d6:	eb 2b                	jmp    401303 <main+0x14e>
  4012d8:	c7 05 c6 41 20 00 00 	movl   $0x0,0x2041c6(%rip)        # 6054a8 <notify>
  4012df:	00 00 00 
  4012e2:	eb 1f                	jmp    401303 <main+0x14e>
  4012e4:	0f be d2             	movsbl %dl,%edx
  4012e7:	be 5f 32 40 00       	mov    $0x40325f,%esi
  4012ec:	bf 01 00 00 00       	mov    $0x1,%edi
  4012f1:	b8 00 00 00 00       	mov    $0x0,%eax
  4012f6:	e8 05 fb ff ff       	callq  400e00 <__printf_chk@plt>
  4012fb:	48 8b 3b             	mov    (%rbx),%rdi
  4012fe:	e8 a3 fc ff ff       	callq  400fa6 <usage>
  401303:	48 89 ea             	mov    %rbp,%rdx
  401306:	48 89 de             	mov    %rbx,%rsi
  401309:	44 89 e7             	mov    %r12d,%edi
  40130c:	e8 0f fb ff ff       	callq  400e20 <getopt@plt>
  401311:	89 c2                	mov    %eax,%edx
  401313:	3c ff                	cmp    $0xff,%al
  401315:	0f 85 22 ff ff ff    	jne    40123d <main+0x88>
  40131b:	be 01 00 00 00       	mov    $0x1,%esi
  401320:	44 89 ef             	mov    %r13d,%edi
  401323:	e8 08 fd ff ff       	callq  401030 <initialize_target>
  401328:	83 3d f9 41 20 00 00 	cmpl   $0x0,0x2041f9(%rip)        # 605528 <is_checker>
  40132f:	74 2a                	je     40135b <main+0x1a6>
  401331:	44 3b 35 e8 41 20 00 	cmp    0x2041e8(%rip),%r14d        # 605520 <authkey>
  401338:	74 21                	je     40135b <main+0x1a6>
  40133a:	44 89 f2             	mov    %r14d,%edx
  40133d:	be 98 31 40 00       	mov    $0x403198,%esi
  401342:	bf 01 00 00 00       	mov    $0x1,%edi
  401347:	b8 00 00 00 00       	mov    $0x0,%eax
  40134c:	e8 af fa ff ff       	callq  400e00 <__printf_chk@plt>
  401351:	b8 00 00 00 00       	mov    $0x0,%eax
  401356:	e8 ed 08 00 00       	callq  401c48 <check_fail>
  40135b:	8b 15 c3 41 20 00    	mov    0x2041c3(%rip),%edx        # 605524 <cookie>
  401361:	be 72 32 40 00       	mov    $0x403272,%esi
  401366:	bf 01 00 00 00       	mov    $0x1,%edi
  40136b:	b8 00 00 00 00       	mov    $0x0,%eax
  401370:	e8 8b fa ff ff       	callq  400e00 <__printf_chk@plt>
  401375:	48 8b 3d 24 41 20 00 	mov    0x204124(%rip),%rdi        # 6054a0 <buf_offset>
  40137c:	e8 82 0d 00 00       	callq  402103 <launch>
  401381:	b8 00 00 00 00       	mov    $0x0,%eax
  401386:	5b                   	pop    %rbx
  401387:	5d                   	pop    %rbp
  401388:	41 5c                	pop    %r12
  40138a:	41 5d                	pop    %r13
  40138c:	41 5e                	pop    %r14
  40138e:	c3                   	retq   

000000000040138f <scramble>:
  40138f:	48 83 ec 38          	sub    $0x38,%rsp
  401393:	64 48 8b 04 25 28 00 	mov    %fs:0x28,%rax
  40139a:	00 00 
  40139c:	48 89 44 24 28       	mov    %rax,0x28(%rsp)
  4013a1:	31 c0                	xor    %eax,%eax
  4013a3:	eb 10                	jmp    4013b5 <scramble+0x26>
  4013a5:	69 d0 59 3f 00 00    	imul   $0x3f59,%eax,%edx
  4013ab:	01 fa                	add    %edi,%edx
  4013ad:	89 c1                	mov    %eax,%ecx
  4013af:	89 14 8c             	mov    %edx,(%rsp,%rcx,4)
  4013b2:	83 c0 01             	add    $0x1,%eax
  4013b5:	83 f8 09             	cmp    $0x9,%eax
  4013b8:	76 eb                	jbe    4013a5 <scramble+0x16>
  4013ba:	8b 44 24 1c          	mov    0x1c(%rsp),%eax
  4013be:	69 c0 85 14 00 00    	imul   $0x1485,%eax,%eax
  4013c4:	89 44 24 1c          	mov    %eax,0x1c(%rsp)
  4013c8:	8b 44 24 14          	mov    0x14(%rsp),%eax
  4013cc:	69 c0 b6 83 00 00    	imul   $0x83b6,%eax,%eax
  4013d2:	89 44 24 14          	mov    %eax,0x14(%rsp)
  4013d6:	8b 44 24 14          	mov    0x14(%rsp),%eax
  4013da:	69 c0 d4 1b 00 00    	imul   $0x1bd4,%eax,%eax
  4013e0:	89 44 24 14          	mov    %eax,0x14(%rsp)
  4013e4:	8b 44 24 18          	mov    0x18(%rsp),%eax
  4013e8:	69 c0 08 27 00 00    	imul   $0x2708,%eax,%eax
  4013ee:	89 44 24 18          	mov    %eax,0x18(%rsp)
  4013f2:	8b 44 24 20          	mov    0x20(%rsp),%eax
  4013f6:	69 c0 f8 a9 00 00    	imul   $0xa9f8,%eax,%eax
  4013fc:	89 44 24 20          	mov    %eax,0x20(%rsp)
  401400:	8b 44 24 08          	mov    0x8(%rsp),%eax
  401404:	69 c0 19 03 00 00    	imul   $0x319,%eax,%eax
  40140a:	89 44 24 08          	mov    %eax,0x8(%rsp)
  40140e:	8b 44 24 04          	mov    0x4(%rsp),%eax
  401412:	69 c0 bc cf 00 00    	imul   $0xcfbc,%eax,%eax
  401418:	89 44 24 04          	mov    %eax,0x4(%rsp)
  40141c:	8b 44 24 14          	mov    0x14(%rsp),%eax
  401420:	69 c0 7e 87 00 00    	imul   $0x877e,%eax,%eax
  401426:	89 44 24 14          	mov    %eax,0x14(%rsp)
  40142a:	8b 44 24 18          	mov    0x18(%rsp),%eax
  40142e:	69 c0 85 d1 00 00    	imul   $0xd185,%eax,%eax
  401434:	89 44 24 18          	mov    %eax,0x18(%rsp)
  401438:	8b 44 24 04          	mov    0x4(%rsp),%eax
  40143c:	69 c0 3a fa 00 00    	imul   $0xfa3a,%eax,%eax
  401442:	89 44 24 04          	mov    %eax,0x4(%rsp)
  401446:	8b 44 24 18          	mov    0x18(%rsp),%eax
  40144a:	69 c0 f1 26 00 00    	imul   $0x26f1,%eax,%eax
  401450:	89 44 24 18          	mov    %eax,0x18(%rsp)
  401454:	8b 44 24 10          	mov    0x10(%rsp),%eax
  401458:	69 c0 cf 05 00 00    	imul   $0x5cf,%eax,%eax
  40145e:	89 44 24 10          	mov    %eax,0x10(%rsp)
  401462:	8b 44 24 08          	mov    0x8(%rsp),%eax
  401466:	69 c0 0b 95 00 00    	imul   $0x950b,%eax,%eax
  40146c:	89 44 24 08          	mov    %eax,0x8(%rsp)
  401470:	8b 44 24 14          	mov    0x14(%rsp),%eax
  401474:	69 c0 aa cc 00 00    	imul   $0xccaa,%eax,%eax
  40147a:	89 44 24 14          	mov    %eax,0x14(%rsp)
  40147e:	8b 44 24 0c          	mov    0xc(%rsp),%eax
  401482:	69 c0 b3 de 00 00    	imul   $0xdeb3,%eax,%eax
  401488:	89 44 24 0c          	mov    %eax,0xc(%rsp)
  40148c:	8b 44 24 20          	mov    0x20(%rsp),%eax
  401490:	69 c0 7e 95 00 00    	imul   $0x957e,%eax,%eax
  401496:	89 44 24 20          	mov    %eax,0x20(%rsp)
  40149a:	8b 44 24 1c          	mov    0x1c(%rsp),%eax
  40149e:	69 c0 50 37 00 00    	imul   $0x3750,%eax,%eax
  4014a4:	89 44 24 1c          	mov    %eax,0x1c(%rsp)
  4014a8:	8b 44 24 18          	mov    0x18(%rsp),%eax
  4014ac:	69 c0 54 a5 00 00    	imul   $0xa554,%eax,%eax
  4014b2:	89 44 24 18          	mov    %eax,0x18(%rsp)
  4014b6:	8b 44 24 18          	mov    0x18(%rsp),%eax
  4014ba:	69 c0 e0 85 00 00    	imul   $0x85e0,%eax,%eax
  4014c0:	89 44 24 18          	mov    %eax,0x18(%rsp)
  4014c4:	8b 44 24 24          	mov    0x24(%rsp),%eax
  4014c8:	69 c0 86 30 00 00    	imul   $0x3086,%eax,%eax
  4014ce:	89 44 24 24          	mov    %eax,0x24(%rsp)
  4014d2:	8b 44 24 04          	mov    0x4(%rsp),%eax
  4014d6:	69 c0 4c e6 00 00    	imul   $0xe64c,%eax,%eax
  4014dc:	89 44 24 04          	mov    %eax,0x4(%rsp)
  4014e0:	8b 44 24 20          	mov    0x20(%rsp),%eax
  4014e4:	69 c0 0b f6 00 00    	imul   $0xf60b,%eax,%eax
  4014ea:	89 44 24 20          	mov    %eax,0x20(%rsp)
  4014ee:	8b 44 24 18          	mov    0x18(%rsp),%eax
  4014f2:	69 c0 2a 8e 00 00    	imul   $0x8e2a,%eax,%eax
  4014f8:	89 44 24 18          	mov    %eax,0x18(%rsp)
  4014fc:	8b 44 24 10          	mov    0x10(%rsp),%eax
  401500:	69 c0 65 f1 00 00    	imul   $0xf165,%eax,%eax
  401506:	89 44 24 10          	mov    %eax,0x10(%rsp)
  40150a:	8b 44 24 08          	mov    0x8(%rsp),%eax
  40150e:	69 c0 1c de 00 00    	imul   $0xde1c,%eax,%eax
  401514:	89 44 24 08          	mov    %eax,0x8(%rsp)
  401518:	8b 44 24 14          	mov    0x14(%rsp),%eax
  40151c:	69 c0 c9 2c 00 00    	imul   $0x2cc9,%eax,%eax
  401522:	89 44 24 14          	mov    %eax,0x14(%rsp)
  401526:	8b 04 24             	mov    (%rsp),%eax
  401529:	69 c0 b0 7e 00 00    	imul   $0x7eb0,%eax,%eax
  40152f:	89 04 24             	mov    %eax,(%rsp)
  401532:	8b 44 24 20          	mov    0x20(%rsp),%eax
  401536:	69 c0 79 7c 00 00    	imul   $0x7c79,%eax,%eax
  40153c:	89 44 24 20          	mov    %eax,0x20(%rsp)
  401540:	8b 44 24 14          	mov    0x14(%rsp),%eax
  401544:	69 c0 64 23 00 00    	imul   $0x2364,%eax,%eax
  40154a:	89 44 24 14          	mov    %eax,0x14(%rsp)
  40154e:	8b 44 24 14          	mov    0x14(%rsp),%eax
  401552:	69 c0 e1 69 00 00    	imul   $0x69e1,%eax,%eax
  401558:	89 44 24 14          	mov    %eax,0x14(%rsp)
  40155c:	8b 44 24 10          	mov    0x10(%rsp),%eax
  401560:	69 c0 d6 00 00 00    	imul   $0xd6,%eax,%eax
  401566:	89 44 24 10          	mov    %eax,0x10(%rsp)
  40156a:	8b 44 24 08          	mov    0x8(%rsp),%eax
  40156e:	69 c0 4f f5 00 00    	imul   $0xf54f,%eax,%eax
  401574:	89 44 24 08          	mov    %eax,0x8(%rsp)
  401578:	8b 44 24 04          	mov    0x4(%rsp),%eax
  40157c:	69 c0 95 18 00 00    	imul   $0x1895,%eax,%eax
  401582:	89 44 24 04          	mov    %eax,0x4(%rsp)
  401586:	8b 44 24 1c          	mov    0x1c(%rsp),%eax
  40158a:	69 c0 4a 8b 00 00    	imul   $0x8b4a,%eax,%eax
  401590:	89 44 24 1c          	mov    %eax,0x1c(%rsp)
  401594:	8b 44 24 08          	mov    0x8(%rsp),%eax
  401598:	69 c0 ff 66 00 00    	imul   $0x66ff,%eax,%eax
  40159e:	89 44 24 08          	mov    %eax,0x8(%rsp)
  4015a2:	8b 44 24 14          	mov    0x14(%rsp),%eax
  4015a6:	69 c0 4e ce 00 00    	imul   $0xce4e,%eax,%eax
  4015ac:	89 44 24 14          	mov    %eax,0x14(%rsp)
  4015b0:	8b 04 24             	mov    (%rsp),%eax
  4015b3:	69 c0 6f ef 00 00    	imul   $0xef6f,%eax,%eax
  4015b9:	89 04 24             	mov    %eax,(%rsp)
  4015bc:	8b 04 24             	mov    (%rsp),%eax
  4015bf:	69 c0 54 03 00 00    	imul   $0x354,%eax,%eax
  4015c5:	89 04 24             	mov    %eax,(%rsp)
  4015c8:	8b 44 24 04          	mov    0x4(%rsp),%eax
  4015cc:	69 c0 e4 41 00 00    	imul   $0x41e4,%eax,%eax
  4015d2:	89 44 24 04          	mov    %eax,0x4(%rsp)
  4015d6:	8b 44 24 08          	mov    0x8(%rsp),%eax
  4015da:	69 c0 4a dd 00 00    	imul   $0xdd4a,%eax,%eax
  4015e0:	89 44 24 08          	mov    %eax,0x8(%rsp)
  4015e4:	8b 44 24 04          	mov    0x4(%rsp),%eax
  4015e8:	69 c0 59 e0 00 00    	imul   $0xe059,%eax,%eax
  4015ee:	89 44 24 04          	mov    %eax,0x4(%rsp)
  4015f2:	8b 44 24 10          	mov    0x10(%rsp),%eax
  4015f6:	69 c0 0d 25 00 00    	imul   $0x250d,%eax,%eax
  4015fc:	89 44 24 10          	mov    %eax,0x10(%rsp)
  401600:	8b 04 24             	mov    (%rsp),%eax
  401603:	69 c0 ab 3c 00 00    	imul   $0x3cab,%eax,%eax
  401609:	89 04 24             	mov    %eax,(%rsp)
  40160c:	8b 44 24 1c          	mov    0x1c(%rsp),%eax
  401610:	69 c0 c6 72 00 00    	imul   $0x72c6,%eax,%eax
  401616:	89 44 24 1c          	mov    %eax,0x1c(%rsp)
  40161a:	8b 44 24 24          	mov    0x24(%rsp),%eax
  40161e:	69 c0 aa ea 00 00    	imul   $0xeaaa,%eax,%eax
  401624:	89 44 24 24          	mov    %eax,0x24(%rsp)
  401628:	8b 44 24 18          	mov    0x18(%rsp),%eax
  40162c:	69 c0 26 62 00 00    	imul   $0x6226,%eax,%eax
  401632:	89 44 24 18          	mov    %eax,0x18(%rsp)
  401636:	8b 44 24 24          	mov    0x24(%rsp),%eax
  40163a:	69 c0 07 dc 00 00    	imul   $0xdc07,%eax,%eax
  401640:	89 44 24 24          	mov    %eax,0x24(%rsp)
  401644:	8b 44 24 20          	mov    0x20(%rsp),%eax
  401648:	69 c0 a7 23 00 00    	imul   $0x23a7,%eax,%eax
  40164e:	89 44 24 20          	mov    %eax,0x20(%rsp)
  401652:	8b 44 24 04          	mov    0x4(%rsp),%eax
  401656:	69 c0 19 f2 00 00    	imul   $0xf219,%eax,%eax
  40165c:	89 44 24 04          	mov    %eax,0x4(%rsp)
  401660:	8b 44 24 08          	mov    0x8(%rsp),%eax
  401664:	69 c0 12 93 00 00    	imul   $0x9312,%eax,%eax
  40166a:	89 44 24 08          	mov    %eax,0x8(%rsp)
  40166e:	8b 44 24 10          	mov    0x10(%rsp),%eax
  401672:	69 c0 c2 6a 00 00    	imul   $0x6ac2,%eax,%eax
  401678:	89 44 24 10          	mov    %eax,0x10(%rsp)
  40167c:	8b 44 24 04          	mov    0x4(%rsp),%eax
  401680:	69 c0 64 a6 00 00    	imul   $0xa664,%eax,%eax
  401686:	89 44 24 04          	mov    %eax,0x4(%rsp)
  40168a:	8b 44 24 18          	mov    0x18(%rsp),%eax
  40168e:	69 c0 ba 25 00 00    	imul   $0x25ba,%eax,%eax
  401694:	89 44 24 18          	mov    %eax,0x18(%rsp)
  401698:	8b 44 24 18          	mov    0x18(%rsp),%eax
  40169c:	69 c0 cb d7 00 00    	imul   $0xd7cb,%eax,%eax
  4016a2:	89 44 24 18          	mov    %eax,0x18(%rsp)
  4016a6:	8b 44 24 1c          	mov    0x1c(%rsp),%eax
  4016aa:	69 c0 71 9e 00 00    	imul   $0x9e71,%eax,%eax
  4016b0:	89 44 24 1c          	mov    %eax,0x1c(%rsp)
  4016b4:	8b 44 24 14          	mov    0x14(%rsp),%eax
  4016b8:	69 c0 9e 87 00 00    	imul   $0x879e,%eax,%eax
  4016be:	89 44 24 14          	mov    %eax,0x14(%rsp)
  4016c2:	8b 44 24 1c          	mov    0x1c(%rsp),%eax
  4016c6:	69 c0 28 bf 00 00    	imul   $0xbf28,%eax,%eax
  4016cc:	89 44 24 1c          	mov    %eax,0x1c(%rsp)
  4016d0:	8b 44 24 0c          	mov    0xc(%rsp),%eax
  4016d4:	69 c0 d5 dd 00 00    	imul   $0xddd5,%eax,%eax
  4016da:	89 44 24 0c          	mov    %eax,0xc(%rsp)
  4016de:	8b 44 24 0c          	mov    0xc(%rsp),%eax
  4016e2:	69 c0 32 4e 00 00    	imul   $0x4e32,%eax,%eax
  4016e8:	89 44 24 0c          	mov    %eax,0xc(%rsp)
  4016ec:	8b 44 24 18          	mov    0x18(%rsp),%eax
  4016f0:	69 c0 e2 5b 00 00    	imul   $0x5be2,%eax,%eax
  4016f6:	89 44 24 18          	mov    %eax,0x18(%rsp)
  4016fa:	8b 44 24 10          	mov    0x10(%rsp),%eax
  4016fe:	69 c0 42 2d 00 00    	imul   $0x2d42,%eax,%eax
  401704:	89 44 24 10          	mov    %eax,0x10(%rsp)
  401708:	8b 44 24 20          	mov    0x20(%rsp),%eax
  40170c:	69 c0 5c 24 00 00    	imul   $0x245c,%eax,%eax
  401712:	89 44 24 20          	mov    %eax,0x20(%rsp)
  401716:	8b 44 24 14          	mov    0x14(%rsp),%eax
  40171a:	69 c0 7e 15 00 00    	imul   $0x157e,%eax,%eax
  401720:	89 44 24 14          	mov    %eax,0x14(%rsp)
  401724:	8b 44 24 1c          	mov    0x1c(%rsp),%eax
  401728:	69 c0 e6 fd 00 00    	imul   $0xfde6,%eax,%eax
  40172e:	89 44 24 1c          	mov    %eax,0x1c(%rsp)
  401732:	8b 44 24 18          	mov    0x18(%rsp),%eax
  401736:	69 c0 f5 f6 00 00    	imul   $0xf6f5,%eax,%eax
  40173c:	89 44 24 18          	mov    %eax,0x18(%rsp)
  401740:	8b 44 24 0c          	mov    0xc(%rsp),%eax
  401744:	69 c0 af 60 00 00    	imul   $0x60af,%eax,%eax
  40174a:	89 44 24 0c          	mov    %eax,0xc(%rsp)
  40174e:	8b 44 24 04          	mov    0x4(%rsp),%eax
  401752:	69 c0 59 f2 00 00    	imul   $0xf259,%eax,%eax
  401758:	89 44 24 04          	mov    %eax,0x4(%rsp)
  40175c:	8b 44 24 04          	mov    0x4(%rsp),%eax
  401760:	69 c0 e8 bb 00 00    	imul   $0xbbe8,%eax,%eax
  401766:	89 44 24 04          	mov    %eax,0x4(%rsp)
  40176a:	8b 04 24             	mov    (%rsp),%eax
  40176d:	69 c0 cb b0 00 00    	imul   $0xb0cb,%eax,%eax
  401773:	89 04 24             	mov    %eax,(%rsp)
  401776:	8b 44 24 24          	mov    0x24(%rsp),%eax
  40177a:	69 c0 b2 7f 00 00    	imul   $0x7fb2,%eax,%eax
  401780:	89 44 24 24          	mov    %eax,0x24(%rsp)
  401784:	8b 44 24 20          	mov    0x20(%rsp),%eax
  401788:	69 c0 c9 48 00 00    	imul   $0x48c9,%eax,%eax
  40178e:	89 44 24 20          	mov    %eax,0x20(%rsp)
  401792:	8b 04 24             	mov    (%rsp),%eax
  401795:	69 c0 08 ce 00 00    	imul   $0xce08,%eax,%eax
  40179b:	89 04 24             	mov    %eax,(%rsp)
  40179e:	8b 44 24 14          	mov    0x14(%rsp),%eax
  4017a2:	69 c0 fc b3 00 00    	imul   $0xb3fc,%eax,%eax
  4017a8:	89 44 24 14          	mov    %eax,0x14(%rsp)
  4017ac:	8b 44 24 20          	mov    0x20(%rsp),%eax
  4017b0:	69 c0 c5 03 00 00    	imul   $0x3c5,%eax,%eax
  4017b6:	89 44 24 20          	mov    %eax,0x20(%rsp)
  4017ba:	8b 44 24 20          	mov    0x20(%rsp),%eax
  4017be:	69 c0 78 fc 00 00    	imul   $0xfc78,%eax,%eax
  4017c4:	89 44 24 20          	mov    %eax,0x20(%rsp)
  4017c8:	8b 44 24 08          	mov    0x8(%rsp),%eax
  4017cc:	69 c0 0a 3b 00 00    	imul   $0x3b0a,%eax,%eax
  4017d2:	89 44 24 08          	mov    %eax,0x8(%rsp)
  4017d6:	8b 44 24 20          	mov    0x20(%rsp),%eax
  4017da:	69 c0 b0 1d 00 00    	imul   $0x1db0,%eax,%eax
  4017e0:	89 44 24 20          	mov    %eax,0x20(%rsp)
  4017e4:	8b 44 24 20          	mov    0x20(%rsp),%eax
  4017e8:	69 c0 04 33 00 00    	imul   $0x3304,%eax,%eax
  4017ee:	89 44 24 20          	mov    %eax,0x20(%rsp)
  4017f2:	8b 44 24 0c          	mov    0xc(%rsp),%eax
  4017f6:	69 c0 6a a7 00 00    	imul   $0xa76a,%eax,%eax
  4017fc:	89 44 24 0c          	mov    %eax,0xc(%rsp)
  401800:	8b 44 24 04          	mov    0x4(%rsp),%eax
  401804:	69 c0 c5 3a 00 00    	imul   $0x3ac5,%eax,%eax
  40180a:	89 44 24 04          	mov    %eax,0x4(%rsp)
  40180e:	8b 44 24 24          	mov    0x24(%rsp),%eax
  401812:	69 c0 e3 c1 00 00    	imul   $0xc1e3,%eax,%eax
  401818:	89 44 24 24          	mov    %eax,0x24(%rsp)
  40181c:	8b 44 24 10          	mov    0x10(%rsp),%eax
  401820:	6b c0 16             	imul   $0x16,%eax,%eax
  401823:	89 44 24 10          	mov    %eax,0x10(%rsp)
  401827:	8b 44 24 10          	mov    0x10(%rsp),%eax
  40182b:	69 c0 88 a2 00 00    	imul   $0xa288,%eax,%eax
  401831:	89 44 24 10          	mov    %eax,0x10(%rsp)
  401835:	8b 44 24 10          	mov    0x10(%rsp),%eax
  401839:	69 c0 50 cc 00 00    	imul   $0xcc50,%eax,%eax
  40183f:	89 44 24 10          	mov    %eax,0x10(%rsp)
  401843:	8b 44 24 18          	mov    0x18(%rsp),%eax
  401847:	69 c0 b2 4f 00 00    	imul   $0x4fb2,%eax,%eax
  40184d:	89 44 24 18          	mov    %eax,0x18(%rsp)
  401851:	8b 44 24 18          	mov    0x18(%rsp),%eax
  401855:	69 c0 91 a2 00 00    	imul   $0xa291,%eax,%eax
  40185b:	89 44 24 18          	mov    %eax,0x18(%rsp)
  40185f:	8b 44 24 24          	mov    0x24(%rsp),%eax
  401863:	69 c0 52 53 00 00    	imul   $0x5352,%eax,%eax
  401869:	89 44 24 24          	mov    %eax,0x24(%rsp)
  40186d:	8b 44 24 10          	mov    0x10(%rsp),%eax
  401871:	69 c0 6e a0 00 00    	imul   $0xa06e,%eax,%eax
  401877:	89 44 24 10          	mov    %eax,0x10(%rsp)
  40187b:	8b 44 24 0c          	mov    0xc(%rsp),%eax
  40187f:	69 c0 76 1c 00 00    	imul   $0x1c76,%eax,%eax
  401885:	89 44 24 0c          	mov    %eax,0xc(%rsp)
  401889:	8b 44 24 10          	mov    0x10(%rsp),%eax
  40188d:	69 c0 7c 09 00 00    	imul   $0x97c,%eax,%eax
  401893:	89 44 24 10          	mov    %eax,0x10(%rsp)
  401897:	ba 00 00 00 00       	mov    $0x0,%edx
  40189c:	b8 00 00 00 00       	mov    $0x0,%eax
  4018a1:	eb 0a                	jmp    4018ad <scramble+0x51e>
  4018a3:	89 d1                	mov    %edx,%ecx
  4018a5:	8b 0c 8c             	mov    (%rsp,%rcx,4),%ecx
  4018a8:	01 c8                	add    %ecx,%eax
  4018aa:	83 c2 01             	add    $0x1,%edx
  4018ad:	83 fa 09             	cmp    $0x9,%edx
  4018b0:	76 f1                	jbe    4018a3 <scramble+0x514>
  4018b2:	48 8b 74 24 28       	mov    0x28(%rsp),%rsi
  4018b7:	64 48 33 34 25 28 00 	xor    %fs:0x28,%rsi
  4018be:	00 00 
  4018c0:	74 05                	je     4018c7 <scramble+0x538>
  4018c2:	e8 29 f4 ff ff       	callq  400cf0 <__stack_chk_fail@plt>
  4018c7:	48 83 c4 38          	add    $0x38,%rsp
  4018cb:	c3                   	retq   

00000000004018cc <getbuf>:
  4018cc:	48 83 ec 18          	sub    $0x18,%rsp
  4018d0:	48 89 e7             	mov    %rsp,%rdi
  4018d3:	e8 a5 03 00 00       	callq  401c7d <Gets>
  4018d8:	b8 01 00 00 00       	mov    $0x1,%eax
  4018dd:	48 83 c4 18          	add    $0x18,%rsp
  4018e1:	c3                   	retq   

00000000004018e2 <touch1>:
  4018e2:	48 83 ec 08          	sub    $0x8,%rsp
  4018e6:	c7 05 2c 3c 20 00 01 	movl   $0x1,0x203c2c(%rip)        # 60551c <vlevel>
  4018ed:	00 00 00 
  4018f0:	bf 7d 34 40 00       	mov    $0x40347d,%edi
  4018f5:	e8 d6 f3 ff ff       	callq  400cd0 <puts@plt>
  4018fa:	bf 01 00 00 00       	mov    $0x1,%edi
  4018ff:	e8 be 05 00 00       	callq  401ec2 <validate>
  401904:	bf 00 00 00 00       	mov    $0x0,%edi
  401909:	e8 42 f5 ff ff       	callq  400e50 <exit@plt>

000000000040190e <touch2>:
  40190e:	48 83 ec 08          	sub    $0x8,%rsp
  401912:	89 fa                	mov    %edi,%edx
  401914:	c7 05 fe 3b 20 00 02 	movl   $0x2,0x203bfe(%rip)        # 60551c <vlevel>
  40191b:	00 00 00 
  40191e:	39 3d 00 3c 20 00    	cmp    %edi,0x203c00(%rip)        # 605524 <cookie>
  401924:	75 20                	jne    401946 <touch2+0x38>
  401926:	be a0 34 40 00       	mov    $0x4034a0,%esi
  40192b:	bf 01 00 00 00       	mov    $0x1,%edi
  401930:	b8 00 00 00 00       	mov    $0x0,%eax
  401935:	e8 c6 f4 ff ff       	callq  400e00 <__printf_chk@plt>
  40193a:	bf 02 00 00 00       	mov    $0x2,%edi
  40193f:	e8 7e 05 00 00       	callq  401ec2 <validate>
  401944:	eb 1e                	jmp    401964 <touch2+0x56>
  401946:	be c8 34 40 00       	mov    $0x4034c8,%esi
  40194b:	bf 01 00 00 00       	mov    $0x1,%edi
  401950:	b8 00 00 00 00       	mov    $0x0,%eax
  401955:	e8 a6 f4 ff ff       	callq  400e00 <__printf_chk@plt>
  40195a:	bf 02 00 00 00       	mov    $0x2,%edi
  40195f:	e8 3a 06 00 00       	callq  401f9e <fail>
  401964:	bf 00 00 00 00       	mov    $0x0,%edi
  401969:	e8 e2 f4 ff ff       	callq  400e50 <exit@plt>

000000000040196e <hexmatch>:
  40196e:	41 54                	push   %r12
  401970:	55                   	push   %rbp
  401971:	53                   	push   %rbx
  401972:	48 83 c4 80          	add    $0xffffffffffffff80,%rsp
  401976:	89 fd                	mov    %edi,%ebp
  401978:	48 89 f3             	mov    %rsi,%rbx
  40197b:	64 48 8b 04 25 28 00 	mov    %fs:0x28,%rax
  401982:	00 00 
  401984:	48 89 44 24 78       	mov    %rax,0x78(%rsp)
  401989:	31 c0                	xor    %eax,%eax
  40198b:	e8 30 f4 ff ff       	callq  400dc0 <random@plt>
  401990:	48 89 c1             	mov    %rax,%rcx
  401993:	48 ba 0b d7 a3 70 3d 	movabs $0xa3d70a3d70a3d70b,%rdx
  40199a:	0a d7 a3 
  40199d:	48 f7 ea             	imul   %rdx
  4019a0:	48 01 ca             	add    %rcx,%rdx
  4019a3:	48 c1 fa 06          	sar    $0x6,%rdx
  4019a7:	48 89 c8             	mov    %rcx,%rax
  4019aa:	48 c1 f8 3f          	sar    $0x3f,%rax
  4019ae:	48 29 c2             	sub    %rax,%rdx
  4019b1:	48 8d 04 92          	lea    (%rdx,%rdx,4),%rax
  4019b5:	48 8d 14 80          	lea    (%rax,%rax,4),%rdx
  4019b9:	48 8d 04 95 00 00 00 	lea    0x0(,%rdx,4),%rax
  4019c0:	00 
  4019c1:	48 29 c1             	sub    %rax,%rcx
  4019c4:	4c 8d 24 0c          	lea    (%rsp,%rcx,1),%r12
  4019c8:	41 89 e8             	mov    %ebp,%r8d
  4019cb:	b9 9a 34 40 00       	mov    $0x40349a,%ecx
  4019d0:	48 c7 c2 ff ff ff ff 	mov    $0xffffffffffffffff,%rdx
  4019d7:	be 01 00 00 00       	mov    $0x1,%esi
  4019dc:	4c 89 e7             	mov    %r12,%rdi
  4019df:	b8 00 00 00 00       	mov    $0x0,%eax
  4019e4:	e8 97 f4 ff ff       	callq  400e80 <__sprintf_chk@plt>
  4019e9:	ba 09 00 00 00       	mov    $0x9,%edx
  4019ee:	4c 89 e6             	mov    %r12,%rsi
  4019f1:	48 89 df             	mov    %rbx,%rdi
  4019f4:	e8 b7 f2 ff ff       	callq  400cb0 <strncmp@plt>
  4019f9:	85 c0                	test   %eax,%eax
  4019fb:	0f 94 c0             	sete   %al
  4019fe:	48 8b 5c 24 78       	mov    0x78(%rsp),%rbx
  401a03:	64 48 33 1c 25 28 00 	xor    %fs:0x28,%rbx
  401a0a:	00 00 
  401a0c:	74 05                	je     401a13 <hexmatch+0xa5>
  401a0e:	e8 dd f2 ff ff       	callq  400cf0 <__stack_chk_fail@plt>
  401a13:	0f b6 c0             	movzbl %al,%eax
  401a16:	48 83 ec 80          	sub    $0xffffffffffffff80,%rsp
  401a1a:	5b                   	pop    %rbx
  401a1b:	5d                   	pop    %rbp
  401a1c:	41 5c                	pop    %r12
  401a1e:	c3                   	retq   

0000000000401a1f <touch3>:
  401a1f:	53                   	push   %rbx
  401a20:	48 89 fb             	mov    %rdi,%rbx
  401a23:	c7 05 ef 3a 20 00 03 	movl   $0x3,0x203aef(%rip)        # 60551c <vlevel>
  401a2a:	00 00 00 
  401a2d:	48 89 fe             	mov    %rdi,%rsi
  401a30:	8b 3d ee 3a 20 00    	mov    0x203aee(%rip),%edi        # 605524 <cookie>
  401a36:	e8 33 ff ff ff       	callq  40196e <hexmatch>
  401a3b:	85 c0                	test   %eax,%eax
  401a3d:	74 23                	je     401a62 <touch3+0x43>
  401a3f:	48 89 da             	mov    %rbx,%rdx
  401a42:	be f0 34 40 00       	mov    $0x4034f0,%esi
  401a47:	bf 01 00 00 00       	mov    $0x1,%edi
  401a4c:	b8 00 00 00 00       	mov    $0x0,%eax
  401a51:	e8 aa f3 ff ff       	callq  400e00 <__printf_chk@plt>
  401a56:	bf 03 00 00 00       	mov    $0x3,%edi
  401a5b:	e8 62 04 00 00       	callq  401ec2 <validate>
  401a60:	eb 21                	jmp    401a83 <touch3+0x64>
  401a62:	48 89 da             	mov    %rbx,%rdx
  401a65:	be 18 35 40 00       	mov    $0x403518,%esi
  401a6a:	bf 01 00 00 00       	mov    $0x1,%edi
  401a6f:	b8 00 00 00 00       	mov    $0x0,%eax
  401a74:	e8 87 f3 ff ff       	callq  400e00 <__printf_chk@plt>
  401a79:	bf 03 00 00 00       	mov    $0x3,%edi
  401a7e:	e8 1b 05 00 00       	callq  401f9e <fail>
  401a83:	bf 00 00 00 00       	mov    $0x0,%edi
  401a88:	e8 c3 f3 ff ff       	callq  400e50 <exit@plt>

0000000000401a8d <test>:
  401a8d:	48 83 ec 08          	sub    $0x8,%rsp
  401a91:	b8 00 00 00 00       	mov    $0x0,%eax
  401a96:	e8 31 fe ff ff       	callq  4018cc <getbuf>
  401a9b:	89 c2                	mov    %eax,%edx
  401a9d:	be 40 35 40 00       	mov    $0x403540,%esi
  401aa2:	bf 01 00 00 00       	mov    $0x1,%edi
  401aa7:	b8 00 00 00 00       	mov    $0x0,%eax
  401aac:	e8 4f f3 ff ff       	callq  400e00 <__printf_chk@plt>
  401ab1:	48 83 c4 08          	add    $0x8,%rsp
  401ab5:	c3                   	retq   

0000000000401ab6 <start_farm>:
  401ab6:	b8 01 00 00 00       	mov    $0x1,%eax
  401abb:	c3                   	retq   

0000000000401abc <getval_145>:
  401abc:	b8 1e 0d ce 58       	mov    $0x58ce0d1e,%eax
  401ac1:	c3                   	retq   

0000000000401ac2 <getval_194>:
  401ac2:	b8 48 89 c7 c1       	mov    $0xc1c78948,%eax
  401ac7:	c3                   	retq   

0000000000401ac8 <setval_433>:
  401ac8:	c7 07 48 89 c7 c3    	movl   $0xc3c78948,(%rdi)
  401ace:	c3                   	retq   

0000000000401acf <setval_182>:
  401acf:	c7 07 48 89 c7 c3    	movl   $0xc3c78948,(%rdi)
  401ad5:	c3                   	retq   

0000000000401ad6 <addval_383>:
  401ad6:	8d 87 a3 99 01 48    	lea    0x480199a3(%rdi),%eax
  401adc:	c3                   	retq   

0000000000401add <setval_326>:
  401add:	c7 07 58 89 c7 90    	movl   $0x90c78958,(%rdi)
  401ae3:	c3                   	retq   

0000000000401ae4 <getval_232>:
  401ae4:	b8 da 58 94 90       	mov    $0x909458da,%eax
  401ae9:	c3                   	retq   

0000000000401aea <addval_226>:
  401aea:	8d 87 58 90 c3 e3    	lea    -0x1c3c6fa8(%rdi),%eax
  401af0:	c3                   	retq   

0000000000401af1 <mid_farm>:
  401af1:	b8 01 00 00 00       	mov    $0x1,%eax
  401af6:	c3                   	retq   

0000000000401af7 <add_xy>:
  401af7:	48 8d 04 37          	lea    (%rdi,%rsi,1),%rax
  401afb:	c3                   	retq   

0000000000401afc <addval_269>:
  401afc:	8d 87 ac c9 d6 90    	lea    -0x6f293654(%rdi),%eax
  401b02:	c3                   	retq   

0000000000401b03 <setval_258>:
  401b03:	c7 07 89 d6 60 db    	movl   $0xdb60d689,(%rdi)
  401b09:	c3                   	retq   

0000000000401b0a <addval_489>:
  401b0a:	8d 87 89 d6 20 c0    	lea    -0x3fdf2977(%rdi),%eax
  401b10:	c3                   	retq   

0000000000401b11 <getval_452>:
  401b11:	b8 89 d6 91 c3       	mov    $0xc391d689,%eax
  401b16:	c3                   	retq   

0000000000401b17 <addval_180>:
  401b17:	8d 87 89 d6 20 c0    	lea    -0x3fdf2977(%rdi),%eax
  401b1d:	c3                   	retq   

0000000000401b1e <getval_287>:
  401b1e:	b8 81 d6 20 c0       	mov    $0xc020d681,%eax
  401b23:	c3                   	retq   

0000000000401b24 <setval_302>:
  401b24:	c7 07 58 89 e0 c3    	movl   $0xc3e08958,(%rdi)
  401b2a:	c3                   	retq   

0000000000401b2b <setval_350>:
  401b2b:	c7 07 89 c1 28 c9    	movl   $0xc928c189,(%rdi)
  401b31:	c3                   	retq   

0000000000401b32 <setval_333>:
  401b32:	c7 07 09 ca 08 d2    	movl   $0xd208ca09,(%rdi)
  401b38:	c3                   	retq   

0000000000401b39 <setval_449>:
  401b39:	c7 07 48 c9 e0 c3    	movl   $0xc3e0c948,(%rdi)
  401b3f:	c3                   	retq   

0000000000401b40 <getval_155>:
  401b40:	b8 48 89 e0 c3       	mov    $0xc3e08948,%eax
  401b45:	c3                   	retq   

0000000000401b46 <addval_131>:
  401b46:	8d 87 89 ca c4 c0    	lea    -0x3f3b3577(%rdi),%eax
  401b4c:	c3                   	retq   

0000000000401b4d <addval_113>:
  401b4d:	8d 87 89 c1 90 c3    	lea    -0x3c6f3e77(%rdi),%eax
  401b53:	c3                   	retq   

0000000000401b54 <setval_280>:
  401b54:	c7 07 89 d6 00 c9    	movl   $0xc900d689,(%rdi)
  401b5a:	c3                   	retq   

0000000000401b5b <setval_170>:
  401b5b:	c7 07 89 ca 20 db    	movl   $0xdb20ca89,(%rdi)
  401b61:	c3                   	retq   

0000000000401b62 <setval_254>:
  401b62:	c7 07 25 42 89 c1    	movl   $0xc1894225,(%rdi)
  401b68:	c3                   	retq   

0000000000401b69 <getval_460>:
  401b69:	b8 31 c9 d6 c3       	mov    $0xc3d6c931,%eax
  401b6e:	c3                   	retq   

0000000000401b6f <setval_134>:
  401b6f:	c7 07 48 89 e0 c2    	movl   $0xc2e08948,(%rdi)
  401b75:	c3                   	retq   

0000000000401b76 <addval_486>:
  401b76:	8d 87 89 c1 00 db    	lea    -0x24ff3e77(%rdi),%eax
  401b7c:	c3                   	retq   

0000000000401b7d <getval_166>:
  401b7d:	b8 b8 89 ca 92       	mov    $0x92ca89b8,%eax
  401b82:	c3                   	retq   

0000000000401b83 <setval_265>:
  401b83:	c7 07 99 ca 08 c9    	movl   $0xc908ca99,(%rdi)
  401b89:	c3                   	retq   

0000000000401b8a <addval_288>:
  401b8a:	8d 87 0d 48 89 e0    	lea    -0x1f76b7f3(%rdi),%eax
  401b90:	c3                   	retq   

0000000000401b91 <addval_411>:
  401b91:	8d 87 89 c1 c1 eb    	lea    -0x143e3e77(%rdi),%eax
  401b97:	c3                   	retq   

0000000000401b98 <setval_247>:
  401b98:	c7 07 89 ca a4 d2    	movl   $0xd2a4ca89,(%rdi)
  401b9e:	c3                   	retq   

0000000000401b9f <addval_245>:
  401b9f:	8d 87 48 8d e0 90    	lea    -0x6f1f72b8(%rdi),%eax
  401ba5:	c3                   	retq   

0000000000401ba6 <addval_323>:
  401ba6:	8d 87 48 89 e0 91    	lea    -0x6e1f76b8(%rdi),%eax
  401bac:	c3                   	retq   

0000000000401bad <addval_128>:
  401bad:	8d 87 89 c1 60 d2    	lea    -0x2d9f3e77(%rdi),%eax
  401bb3:	c3                   	retq   

0000000000401bb4 <addval_400>:
  401bb4:	8d 87 48 89 e0 c1    	lea    -0x3e1f76b8(%rdi),%eax
  401bba:	c3                   	retq   

0000000000401bbb <addval_297>:
  401bbb:	8d 87 8b c1 84 c0    	lea    -0x3f7b3e75(%rdi),%eax
  401bc1:	c3                   	retq   

0000000000401bc2 <addval_264>:
  401bc2:	8d 87 99 c1 38 db    	lea    -0x24c73e67(%rdi),%eax
  401bc8:	c3                   	retq   

0000000000401bc9 <setval_384>:
  401bc9:	c7 07 81 ca 20 c0    	movl   $0xc020ca81,(%rdi)
  401bcf:	c3                   	retq   

0000000000401bd0 <addval_463>:
  401bd0:	8d 87 89 ca 20 db    	lea    -0x24df3577(%rdi),%eax
  401bd6:	c3                   	retq   

0000000000401bd7 <end_farm>:
  401bd7:	b8 01 00 00 00       	mov    $0x1,%eax
  401bdc:	c3                   	retq   

0000000000401bdd <save_char>:
  401bdd:	8b 05 61 45 20 00    	mov    0x204561(%rip),%eax        # 606144 <gets_cnt>
  401be3:	3d ff 03 00 00       	cmp    $0x3ff,%eax
  401be8:	7f 49                	jg     401c33 <save_char+0x56>
  401bea:	8d 14 40             	lea    (%rax,%rax,2),%edx
  401bed:	89 f9                	mov    %edi,%ecx
  401bef:	c0 e9 04             	shr    $0x4,%cl
  401bf2:	83 e1 0f             	and    $0xf,%ecx
  401bf5:	0f b6 b1 60 38 40 00 	movzbl 0x403860(%rcx),%esi
  401bfc:	48 63 ca             	movslq %edx,%rcx
  401bff:	40 88 b1 40 55 60 00 	mov    %sil,0x605540(%rcx)
  401c06:	8d 4a 01             	lea    0x1(%rdx),%ecx
  401c09:	83 e7 0f             	and    $0xf,%edi
  401c0c:	0f b6 b7 60 38 40 00 	movzbl 0x403860(%rdi),%esi
  401c13:	48 63 c9             	movslq %ecx,%rcx
  401c16:	40 88 b1 40 55 60 00 	mov    %sil,0x605540(%rcx)
  401c1d:	83 c2 02             	add    $0x2,%edx
  401c20:	48 63 d2             	movslq %edx,%rdx
  401c23:	c6 82 40 55 60 00 20 	movb   $0x20,0x605540(%rdx)
  401c2a:	83 c0 01             	add    $0x1,%eax
  401c2d:	89 05 11 45 20 00    	mov    %eax,0x204511(%rip)        # 606144 <gets_cnt>
  401c33:	f3 c3                	repz retq 

0000000000401c35 <save_term>:
  401c35:	8b 05 09 45 20 00    	mov    0x204509(%rip),%eax        # 606144 <gets_cnt>
  401c3b:	8d 04 40             	lea    (%rax,%rax,2),%eax
  401c3e:	48 98                	cltq   
  401c40:	c6 80 40 55 60 00 00 	movb   $0x0,0x605540(%rax)
  401c47:	c3                   	retq   

0000000000401c48 <check_fail>:
  401c48:	48 83 ec 08          	sub    $0x8,%rsp
  401c4c:	0f be 15 f5 44 20 00 	movsbl 0x2044f5(%rip),%edx        # 606148 <target_prefix>
  401c53:	41 b8 40 55 60 00    	mov    $0x605540,%r8d
  401c59:	8b 0d b9 38 20 00    	mov    0x2038b9(%rip),%ecx        # 605518 <check_level>
  401c5f:	be 63 35 40 00       	mov    $0x403563,%esi
  401c64:	bf 01 00 00 00       	mov    $0x1,%edi
  401c69:	b8 00 00 00 00       	mov    $0x0,%eax
  401c6e:	e8 8d f1 ff ff       	callq  400e00 <__printf_chk@plt>
  401c73:	bf 01 00 00 00       	mov    $0x1,%edi
  401c78:	e8 d3 f1 ff ff       	callq  400e50 <exit@plt>

0000000000401c7d <Gets>:
  401c7d:	41 54                	push   %r12
  401c7f:	55                   	push   %rbp
  401c80:	53                   	push   %rbx
  401c81:	49 89 fc             	mov    %rdi,%r12
  401c84:	c7 05 b6 44 20 00 00 	movl   $0x0,0x2044b6(%rip)        # 606144 <gets_cnt>
  401c8b:	00 00 00 
  401c8e:	48 89 fb             	mov    %rdi,%rbx
  401c91:	eb 11                	jmp    401ca4 <Gets+0x27>
  401c93:	48 8d 6b 01          	lea    0x1(%rbx),%rbp
  401c97:	88 03                	mov    %al,(%rbx)
  401c99:	0f b6 f8             	movzbl %al,%edi
  401c9c:	e8 3c ff ff ff       	callq  401bdd <save_char>
  401ca1:	48 89 eb             	mov    %rbp,%rbx
  401ca4:	48 8b 3d 65 38 20 00 	mov    0x203865(%rip),%rdi        # 605510 <infile>
  401cab:	e8 20 f1 ff ff       	callq  400dd0 <_IO_getc@plt>
  401cb0:	83 f8 ff             	cmp    $0xffffffff,%eax
  401cb3:	74 05                	je     401cba <Gets+0x3d>
  401cb5:	83 f8 0a             	cmp    $0xa,%eax
  401cb8:	75 d9                	jne    401c93 <Gets+0x16>
  401cba:	c6 03 00             	movb   $0x0,(%rbx)
  401cbd:	b8 00 00 00 00       	mov    $0x0,%eax
  401cc2:	e8 6e ff ff ff       	callq  401c35 <save_term>
  401cc7:	4c 89 e0             	mov    %r12,%rax
  401cca:	5b                   	pop    %rbx
  401ccb:	5d                   	pop    %rbp
  401ccc:	41 5c                	pop    %r12
  401cce:	c3                   	retq   

0000000000401ccf <notify_server>:
  401ccf:	53                   	push   %rbx
  401cd0:	48 81 ec 10 40 00 00 	sub    $0x4010,%rsp
  401cd7:	64 48 8b 04 25 28 00 	mov    %fs:0x28,%rax
  401cde:	00 00 
  401ce0:	48 89 84 24 08 40 00 	mov    %rax,0x4008(%rsp)
  401ce7:	00 
  401ce8:	31 c0                	xor    %eax,%eax
  401cea:	83 3d 37 38 20 00 00 	cmpl   $0x0,0x203837(%rip)        # 605528 <is_checker>
  401cf1:	0f 85 aa 01 00 00    	jne    401ea1 <notify_server+0x1d2>
  401cf7:	89 fb                	mov    %edi,%ebx
  401cf9:	8b 05 45 44 20 00    	mov    0x204445(%rip),%eax        # 606144 <gets_cnt>
  401cff:	83 c0 64             	add    $0x64,%eax
  401d02:	3d 00 20 00 00       	cmp    $0x2000,%eax
  401d07:	7e 1e                	jle    401d27 <notify_server+0x58>
  401d09:	be 98 36 40 00       	mov    $0x403698,%esi
  401d0e:	bf 01 00 00 00       	mov    $0x1,%edi
  401d13:	b8 00 00 00 00       	mov    $0x0,%eax
  401d18:	e8 e3 f0 ff ff       	callq  400e00 <__printf_chk@plt>
  401d1d:	bf 01 00 00 00       	mov    $0x1,%edi
  401d22:	e8 29 f1 ff ff       	callq  400e50 <exit@plt>
  401d27:	0f be 05 1a 44 20 00 	movsbl 0x20441a(%rip),%eax        # 606148 <target_prefix>
  401d2e:	83 3d 73 37 20 00 00 	cmpl   $0x0,0x203773(%rip)        # 6054a8 <notify>
  401d35:	74 08                	je     401d3f <notify_server+0x70>
  401d37:	8b 15 e3 37 20 00    	mov    0x2037e3(%rip),%edx        # 605520 <authkey>
  401d3d:	eb 05                	jmp    401d44 <notify_server+0x75>
  401d3f:	ba ff ff ff ff       	mov    $0xffffffff,%edx
  401d44:	85 db                	test   %ebx,%ebx
  401d46:	74 08                	je     401d50 <notify_server+0x81>
  401d48:	41 b9 79 35 40 00    	mov    $0x403579,%r9d
  401d4e:	eb 06                	jmp    401d56 <notify_server+0x87>
  401d50:	41 b9 7e 35 40 00    	mov    $0x40357e,%r9d
  401d56:	68 40 55 60 00       	pushq  $0x605540
  401d5b:	56                   	push   %rsi
  401d5c:	50                   	push   %rax
  401d5d:	52                   	push   %rdx
  401d5e:	44 8b 05 03 34 20 00 	mov    0x203403(%rip),%r8d        # 605168 <target_id>
  401d65:	b9 83 35 40 00       	mov    $0x403583,%ecx
  401d6a:	ba 00 20 00 00       	mov    $0x2000,%edx
  401d6f:	be 01 00 00 00       	mov    $0x1,%esi
  401d74:	48 8d 7c 24 20       	lea    0x20(%rsp),%rdi
  401d79:	b8 00 00 00 00       	mov    $0x0,%eax
  401d7e:	e8 fd f0 ff ff       	callq  400e80 <__sprintf_chk@plt>
  401d83:	48 83 c4 20          	add    $0x20,%rsp
  401d87:	83 3d 1a 37 20 00 00 	cmpl   $0x0,0x20371a(%rip)        # 6054a8 <notify>
  401d8e:	0f 84 81 00 00 00    	je     401e15 <notify_server+0x146>
  401d94:	85 db                	test   %ebx,%ebx
  401d96:	74 6e                	je     401e06 <notify_server+0x137>
  401d98:	4c 8d 8c 24 00 20 00 	lea    0x2000(%rsp),%r9
  401d9f:	00 
  401da0:	41 b8 00 00 00 00    	mov    $0x0,%r8d
  401da6:	48 89 e1             	mov    %rsp,%rcx
  401da9:	48 8b 15 c0 33 20 00 	mov    0x2033c0(%rip),%rdx        # 605170 <lab>
  401db0:	48 8b 35 c1 33 20 00 	mov    0x2033c1(%rip),%rsi        # 605178 <course>
  401db7:	48 8b 3d a2 33 20 00 	mov    0x2033a2(%rip),%rdi        # 605160 <user_id>
  401dbe:	e8 09 11 00 00       	callq  402ecc <driver_post>
  401dc3:	85 c0                	test   %eax,%eax
  401dc5:	79 26                	jns    401ded <notify_server+0x11e>
  401dc7:	48 8d 94 24 00 20 00 	lea    0x2000(%rsp),%rdx
  401dce:	00 
  401dcf:	be 9f 35 40 00       	mov    $0x40359f,%esi
  401dd4:	bf 01 00 00 00       	mov    $0x1,%edi
  401dd9:	b8 00 00 00 00       	mov    $0x0,%eax
  401dde:	e8 1d f0 ff ff       	callq  400e00 <__printf_chk@plt>
  401de3:	bf 01 00 00 00       	mov    $0x1,%edi
  401de8:	e8 63 f0 ff ff       	callq  400e50 <exit@plt>
  401ded:	bf c8 36 40 00       	mov    $0x4036c8,%edi
  401df2:	e8 d9 ee ff ff       	callq  400cd0 <puts@plt>
  401df7:	bf ab 35 40 00       	mov    $0x4035ab,%edi
  401dfc:	e8 cf ee ff ff       	callq  400cd0 <puts@plt>
  401e01:	e9 9b 00 00 00       	jmpq   401ea1 <notify_server+0x1d2>
  401e06:	bf b5 35 40 00       	mov    $0x4035b5,%edi
  401e0b:	e8 c0 ee ff ff       	callq  400cd0 <puts@plt>
  401e10:	e9 8c 00 00 00       	jmpq   401ea1 <notify_server+0x1d2>
  401e15:	85 db                	test   %ebx,%ebx
  401e17:	74 07                	je     401e20 <notify_server+0x151>
  401e19:	ba 79 35 40 00       	mov    $0x403579,%edx
  401e1e:	eb 05                	jmp    401e25 <notify_server+0x156>
  401e20:	ba 7e 35 40 00       	mov    $0x40357e,%edx
  401e25:	be 00 37 40 00       	mov    $0x403700,%esi
  401e2a:	bf 01 00 00 00       	mov    $0x1,%edi
  401e2f:	b8 00 00 00 00       	mov    $0x0,%eax
  401e34:	e8 c7 ef ff ff       	callq  400e00 <__printf_chk@plt>
  401e39:	48 8b 15 20 33 20 00 	mov    0x203320(%rip),%rdx        # 605160 <user_id>
  401e40:	be bc 35 40 00       	mov    $0x4035bc,%esi
  401e45:	bf 01 00 00 00       	mov    $0x1,%edi
  401e4a:	b8 00 00 00 00       	mov    $0x0,%eax
  401e4f:	e8 ac ef ff ff       	callq  400e00 <__printf_chk@plt>
  401e54:	48 8b 15 1d 33 20 00 	mov    0x20331d(%rip),%rdx        # 605178 <course>
  401e5b:	be c9 35 40 00       	mov    $0x4035c9,%esi
  401e60:	bf 01 00 00 00       	mov    $0x1,%edi
  401e65:	b8 00 00 00 00       	mov    $0x0,%eax
  401e6a:	e8 91 ef ff ff       	callq  400e00 <__printf_chk@plt>
  401e6f:	48 8b 15 fa 32 20 00 	mov    0x2032fa(%rip),%rdx        # 605170 <lab>
  401e76:	be d5 35 40 00       	mov    $0x4035d5,%esi
  401e7b:	bf 01 00 00 00       	mov    $0x1,%edi
  401e80:	b8 00 00 00 00       	mov    $0x0,%eax
  401e85:	e8 76 ef ff ff       	callq  400e00 <__printf_chk@plt>
  401e8a:	48 89 e2             	mov    %rsp,%rdx
  401e8d:	be de 35 40 00       	mov    $0x4035de,%esi
  401e92:	bf 01 00 00 00       	mov    $0x1,%edi
  401e97:	b8 00 00 00 00       	mov    $0x0,%eax
  401e9c:	e8 5f ef ff ff       	callq  400e00 <__printf_chk@plt>
  401ea1:	48 8b 84 24 08 40 00 	mov    0x4008(%rsp),%rax
  401ea8:	00 
  401ea9:	64 48 33 04 25 28 00 	xor    %fs:0x28,%rax
  401eb0:	00 00 
  401eb2:	74 05                	je     401eb9 <notify_server+0x1ea>
  401eb4:	e8 37 ee ff ff       	callq  400cf0 <__stack_chk_fail@plt>
  401eb9:	48 81 c4 10 40 00 00 	add    $0x4010,%rsp
  401ec0:	5b                   	pop    %rbx
  401ec1:	c3                   	retq   

0000000000401ec2 <validate>:
  401ec2:	4c 8d 54 24 08       	lea    0x8(%rsp),%r10
  401ec7:	48 83 e4 f0          	and    $0xfffffffffffffff0,%rsp
  401ecb:	41 ff 72 f8          	pushq  -0x8(%r10)
  401ecf:	55                   	push   %rbp
  401ed0:	48 89 e5             	mov    %rsp,%rbp
  401ed3:	41 52                	push   %r10
  401ed5:	53                   	push   %rbx
  401ed6:	89 fb                	mov    %edi,%ebx
  401ed8:	83 3d 49 36 20 00 00 	cmpl   $0x0,0x203649(%rip)        # 605528 <is_checker>
  401edf:	74 6b                	je     401f4c <validate+0x8a>
  401ee1:	39 3d 35 36 20 00    	cmp    %edi,0x203635(%rip)        # 60551c <vlevel>
  401ee7:	74 14                	je     401efd <validate+0x3b>
  401ee9:	bf ea 35 40 00       	mov    $0x4035ea,%edi
  401eee:	e8 dd ed ff ff       	callq  400cd0 <puts@plt>
  401ef3:	b8 00 00 00 00       	mov    $0x0,%eax
  401ef8:	e8 4b fd ff ff       	callq  401c48 <check_fail>
  401efd:	8b 15 15 36 20 00    	mov    0x203615(%rip),%edx        # 605518 <check_level>
  401f03:	39 d7                	cmp    %edx,%edi
  401f05:	74 20                	je     401f27 <validate+0x65>
  401f07:	89 f9                	mov    %edi,%ecx
  401f09:	be 28 37 40 00       	mov    $0x403728,%esi
  401f0e:	bf 01 00 00 00       	mov    $0x1,%edi
  401f13:	b8 00 00 00 00       	mov    $0x0,%eax
  401f18:	e8 e3 ee ff ff       	callq  400e00 <__printf_chk@plt>
  401f1d:	b8 00 00 00 00       	mov    $0x0,%eax
  401f22:	e8 21 fd ff ff       	callq  401c48 <check_fail>
  401f27:	0f be 15 1a 42 20 00 	movsbl 0x20421a(%rip),%edx        # 606148 <target_prefix>
  401f2e:	41 b8 40 55 60 00    	mov    $0x605540,%r8d
  401f34:	89 f9                	mov    %edi,%ecx
  401f36:	be 08 36 40 00       	mov    $0x403608,%esi
  401f3b:	bf 01 00 00 00       	mov    $0x1,%edi
  401f40:	b8 00 00 00 00       	mov    $0x0,%eax
  401f45:	e8 b6 ee ff ff       	callq  400e00 <__printf_chk@plt>
  401f4a:	eb 49                	jmp    401f95 <validate+0xd3>
  401f4c:	3b 3d ca 35 20 00    	cmp    0x2035ca(%rip),%edi        # 60551c <vlevel>
  401f52:	74 18                	je     401f6c <validate+0xaa>
  401f54:	bf ea 35 40 00       	mov    $0x4035ea,%edi
  401f59:	e8 72 ed ff ff       	callq  400cd0 <puts@plt>
  401f5e:	89 de                	mov    %ebx,%esi
  401f60:	bf 00 00 00 00       	mov    $0x0,%edi
  401f65:	e8 65 fd ff ff       	callq  401ccf <notify_server>
  401f6a:	eb 29                	jmp    401f95 <validate+0xd3>
  401f6c:	0f be 0d d5 41 20 00 	movsbl 0x2041d5(%rip),%ecx        # 606148 <target_prefix>
  401f73:	89 fa                	mov    %edi,%edx
  401f75:	be 50 37 40 00       	mov    $0x403750,%esi
  401f7a:	bf 01 00 00 00       	mov    $0x1,%edi
  401f7f:	b8 00 00 00 00       	mov    $0x0,%eax
  401f84:	e8 77 ee ff ff       	callq  400e00 <__printf_chk@plt>
  401f89:	89 de                	mov    %ebx,%esi
  401f8b:	bf 01 00 00 00       	mov    $0x1,%edi
  401f90:	e8 3a fd ff ff       	callq  401ccf <notify_server>
  401f95:	5b                   	pop    %rbx
  401f96:	41 5a                	pop    %r10
  401f98:	5d                   	pop    %rbp
  401f99:	49 8d 62 f8          	lea    -0x8(%r10),%rsp
  401f9d:	c3                   	retq   

0000000000401f9e <fail>:
  401f9e:	48 83 ec 08          	sub    $0x8,%rsp
  401fa2:	83 3d 7f 35 20 00 00 	cmpl   $0x0,0x20357f(%rip)        # 605528 <is_checker>
  401fa9:	74 0a                	je     401fb5 <fail+0x17>
  401fab:	b8 00 00 00 00       	mov    $0x0,%eax
  401fb0:	e8 93 fc ff ff       	callq  401c48 <check_fail>
  401fb5:	89 fe                	mov    %edi,%esi
  401fb7:	bf 00 00 00 00       	mov    $0x0,%edi
  401fbc:	e8 0e fd ff ff       	callq  401ccf <notify_server>
  401fc1:	48 83 c4 08          	add    $0x8,%rsp
  401fc5:	c3                   	retq   

0000000000401fc6 <bushandler>:
  401fc6:	48 83 ec 08          	sub    $0x8,%rsp
  401fca:	83 3d 57 35 20 00 00 	cmpl   $0x0,0x203557(%rip)        # 605528 <is_checker>
  401fd1:	74 14                	je     401fe7 <bushandler+0x21>
  401fd3:	bf 1d 36 40 00       	mov    $0x40361d,%edi
  401fd8:	e8 f3 ec ff ff       	callq  400cd0 <puts@plt>
  401fdd:	b8 00 00 00 00       	mov    $0x0,%eax
  401fe2:	e8 61 fc ff ff       	callq  401c48 <check_fail>
  401fe7:	bf 88 37 40 00       	mov    $0x403788,%edi
  401fec:	e8 df ec ff ff       	callq  400cd0 <puts@plt>
  401ff1:	bf 27 36 40 00       	mov    $0x403627,%edi
  401ff6:	e8 d5 ec ff ff       	callq  400cd0 <puts@plt>
  401ffb:	be 00 00 00 00       	mov    $0x0,%esi
  402000:	bf 00 00 00 00       	mov    $0x0,%edi
  402005:	e8 c5 fc ff ff       	callq  401ccf <notify_server>
  40200a:	bf 01 00 00 00       	mov    $0x1,%edi
  40200f:	e8 3c ee ff ff       	callq  400e50 <exit@plt>

0000000000402014 <seghandler>:
  402014:	48 83 ec 08          	sub    $0x8,%rsp
  402018:	83 3d 09 35 20 00 00 	cmpl   $0x0,0x203509(%rip)        # 605528 <is_checker>
  40201f:	74 14                	je     402035 <seghandler+0x21>
  402021:	bf 3d 36 40 00       	mov    $0x40363d,%edi
  402026:	e8 a5 ec ff ff       	callq  400cd0 <puts@plt>
  40202b:	b8 00 00 00 00       	mov    $0x0,%eax
  402030:	e8 13 fc ff ff       	callq  401c48 <check_fail>
  402035:	bf a8 37 40 00       	mov    $0x4037a8,%edi
  40203a:	e8 91 ec ff ff       	callq  400cd0 <puts@plt>
  40203f:	bf 27 36 40 00       	mov    $0x403627,%edi
  402044:	e8 87 ec ff ff       	callq  400cd0 <puts@plt>
  402049:	be 00 00 00 00       	mov    $0x0,%esi
  40204e:	bf 00 00 00 00       	mov    $0x0,%edi
  402053:	e8 77 fc ff ff       	callq  401ccf <notify_server>
  402058:	bf 01 00 00 00       	mov    $0x1,%edi
  40205d:	e8 ee ed ff ff       	callq  400e50 <exit@plt>

0000000000402062 <illegalhandler>:
  402062:	48 83 ec 08          	sub    $0x8,%rsp
  402066:	83 3d bb 34 20 00 00 	cmpl   $0x0,0x2034bb(%rip)        # 605528 <is_checker>
  40206d:	74 14                	je     402083 <illegalhandler+0x21>
  40206f:	bf 50 36 40 00       	mov    $0x403650,%edi
  402074:	e8 57 ec ff ff       	callq  400cd0 <puts@plt>
  402079:	b8 00 00 00 00       	mov    $0x0,%eax
  40207e:	e8 c5 fb ff ff       	callq  401c48 <check_fail>
  402083:	bf d0 37 40 00       	mov    $0x4037d0,%edi
  402088:	e8 43 ec ff ff       	callq  400cd0 <puts@plt>
  40208d:	bf 27 36 40 00       	mov    $0x403627,%edi
  402092:	e8 39 ec ff ff       	callq  400cd0 <puts@plt>
  402097:	be 00 00 00 00       	mov    $0x0,%esi
  40209c:	bf 00 00 00 00       	mov    $0x0,%edi
  4020a1:	e8 29 fc ff ff       	callq  401ccf <notify_server>
  4020a6:	bf 01 00 00 00       	mov    $0x1,%edi
  4020ab:	e8 a0 ed ff ff       	callq  400e50 <exit@plt>

00000000004020b0 <sigalrmhandler>:
  4020b0:	48 83 ec 08          	sub    $0x8,%rsp
  4020b4:	83 3d 6d 34 20 00 00 	cmpl   $0x0,0x20346d(%rip)        # 605528 <is_checker>
  4020bb:	74 14                	je     4020d1 <sigalrmhandler+0x21>
  4020bd:	bf 64 36 40 00       	mov    $0x403664,%edi
  4020c2:	e8 09 ec ff ff       	callq  400cd0 <puts@plt>
  4020c7:	b8 00 00 00 00       	mov    $0x0,%eax
  4020cc:	e8 77 fb ff ff       	callq  401c48 <check_fail>
  4020d1:	ba 05 00 00 00       	mov    $0x5,%edx
  4020d6:	be 00 38 40 00       	mov    $0x403800,%esi
  4020db:	bf 01 00 00 00       	mov    $0x1,%edi
  4020e0:	b8 00 00 00 00       	mov    $0x0,%eax
  4020e5:	e8 16 ed ff ff       	callq  400e00 <__printf_chk@plt>
  4020ea:	be 00 00 00 00       	mov    $0x0,%esi
  4020ef:	bf 00 00 00 00       	mov    $0x0,%edi
  4020f4:	e8 d6 fb ff ff       	callq  401ccf <notify_server>
  4020f9:	bf 01 00 00 00       	mov    $0x1,%edi
  4020fe:	e8 4d ed ff ff       	callq  400e50 <exit@plt>

0000000000402103 <launch>:
  402103:	55                   	push   %rbp
  402104:	48 89 e5             	mov    %rsp,%rbp
  402107:	48 83 ec 10          	sub    $0x10,%rsp
  40210b:	48 89 fa             	mov    %rdi,%rdx
  40210e:	64 48 8b 04 25 28 00 	mov    %fs:0x28,%rax
  402115:	00 00 
  402117:	48 89 45 f8          	mov    %rax,-0x8(%rbp)
  40211b:	31 c0                	xor    %eax,%eax
  40211d:	48 8d 47 1e          	lea    0x1e(%rdi),%rax
  402121:	48 83 e0 f0          	and    $0xfffffffffffffff0,%rax
  402125:	48 29 c4             	sub    %rax,%rsp
  402128:	48 8d 7c 24 0f       	lea    0xf(%rsp),%rdi
  40212d:	48 83 e7 f0          	and    $0xfffffffffffffff0,%rdi
  402131:	be f4 00 00 00       	mov    $0xf4,%esi
  402136:	e8 d5 eb ff ff       	callq  400d10 <memset@plt>
  40213b:	48 8b 05 7e 33 20 00 	mov    0x20337e(%rip),%rax        # 6054c0 <stdin@@GLIBC_2.2.5>
  402142:	48 39 05 c7 33 20 00 	cmp    %rax,0x2033c7(%rip)        # 605510 <infile>
  402149:	75 14                	jne    40215f <launch+0x5c>
  40214b:	be 6c 36 40 00       	mov    $0x40366c,%esi
  402150:	bf 01 00 00 00       	mov    $0x1,%edi
  402155:	b8 00 00 00 00       	mov    $0x0,%eax
  40215a:	e8 a1 ec ff ff       	callq  400e00 <__printf_chk@plt>
  40215f:	c7 05 b3 33 20 00 00 	movl   $0x0,0x2033b3(%rip)        # 60551c <vlevel>
  402166:	00 00 00 
  402169:	b8 00 00 00 00       	mov    $0x0,%eax
  40216e:	e8 1a f9 ff ff       	callq  401a8d <test>
  402173:	83 3d ae 33 20 00 00 	cmpl   $0x0,0x2033ae(%rip)        # 605528 <is_checker>
  40217a:	74 14                	je     402190 <launch+0x8d>
  40217c:	bf 79 36 40 00       	mov    $0x403679,%edi
  402181:	e8 4a eb ff ff       	callq  400cd0 <puts@plt>
  402186:	b8 00 00 00 00       	mov    $0x0,%eax
  40218b:	e8 b8 fa ff ff       	callq  401c48 <check_fail>
  402190:	bf 84 36 40 00       	mov    $0x403684,%edi
  402195:	e8 36 eb ff ff       	callq  400cd0 <puts@plt>
  40219a:	48 8b 45 f8          	mov    -0x8(%rbp),%rax
  40219e:	64 48 33 04 25 28 00 	xor    %fs:0x28,%rax
  4021a5:	00 00 
  4021a7:	74 05                	je     4021ae <launch+0xab>
  4021a9:	e8 42 eb ff ff       	callq  400cf0 <__stack_chk_fail@plt>
  4021ae:	c9                   	leaveq 
  4021af:	c3                   	retq   

00000000004021b0 <stable_launch>:
  4021b0:	53                   	push   %rbx
  4021b1:	48 89 3d 50 33 20 00 	mov    %rdi,0x203350(%rip)        # 605508 <global_offset>
  4021b8:	41 b9 00 00 00 00    	mov    $0x0,%r9d
  4021be:	41 b8 00 00 00 00    	mov    $0x0,%r8d
  4021c4:	b9 32 01 00 00       	mov    $0x132,%ecx
  4021c9:	ba 07 00 00 00       	mov    $0x7,%edx
  4021ce:	be 00 00 10 00       	mov    $0x100000,%esi
  4021d3:	bf 00 60 58 55       	mov    $0x55586000,%edi
  4021d8:	e8 23 eb ff ff       	callq  400d00 <mmap@plt>
  4021dd:	48 89 c3             	mov    %rax,%rbx
  4021e0:	48 3d 00 60 58 55    	cmp    $0x55586000,%rax
  4021e6:	74 37                	je     40221f <stable_launch+0x6f>
  4021e8:	be 00 00 10 00       	mov    $0x100000,%esi
  4021ed:	48 89 c7             	mov    %rax,%rdi
  4021f0:	e8 fb eb ff ff       	callq  400df0 <munmap@plt>
  4021f5:	b9 00 60 58 55       	mov    $0x55586000,%ecx
  4021fa:	ba 38 38 40 00       	mov    $0x403838,%edx
  4021ff:	be 01 00 00 00       	mov    $0x1,%esi
  402204:	48 8b 3d d5 32 20 00 	mov    0x2032d5(%rip),%rdi        # 6054e0 <stderr@@GLIBC_2.2.5>
  40220b:	b8 00 00 00 00       	mov    $0x0,%eax
  402210:	e8 5b ec ff ff       	callq  400e70 <__fprintf_chk@plt>
  402215:	bf 01 00 00 00       	mov    $0x1,%edi
  40221a:	e8 31 ec ff ff       	callq  400e50 <exit@plt>
  40221f:	48 8d 90 f8 ff 0f 00 	lea    0xffff8(%rax),%rdx
  402226:	48 89 15 23 3f 20 00 	mov    %rdx,0x203f23(%rip)        # 606150 <stack_top>
  40222d:	48 89 e0             	mov    %rsp,%rax
  402230:	48 89 d4             	mov    %rdx,%rsp
  402233:	48 89 c2             	mov    %rax,%rdx
  402236:	48 89 15 c3 32 20 00 	mov    %rdx,0x2032c3(%rip)        # 605500 <global_save_stack>
  40223d:	48 8b 3d c4 32 20 00 	mov    0x2032c4(%rip),%rdi        # 605508 <global_offset>
  402244:	e8 ba fe ff ff       	callq  402103 <launch>
  402249:	48 8b 05 b0 32 20 00 	mov    0x2032b0(%rip),%rax        # 605500 <global_save_stack>
  402250:	48 89 c4             	mov    %rax,%rsp
  402253:	be 00 00 10 00       	mov    $0x100000,%esi
  402258:	48 89 df             	mov    %rbx,%rdi
  40225b:	e8 90 eb ff ff       	callq  400df0 <munmap@plt>
  402260:	5b                   	pop    %rbx
  402261:	c3                   	retq   

0000000000402262 <rio_readinitb>:
  402262:	89 37                	mov    %esi,(%rdi)
  402264:	c7 47 04 00 00 00 00 	movl   $0x0,0x4(%rdi)
  40226b:	48 8d 47 10          	lea    0x10(%rdi),%rax
  40226f:	48 89 47 08          	mov    %rax,0x8(%rdi)
  402273:	c3                   	retq   

0000000000402274 <sigalrm_handler>:
  402274:	48 83 ec 08          	sub    $0x8,%rsp
  402278:	b9 00 00 00 00       	mov    $0x0,%ecx
  40227d:	ba 70 38 40 00       	mov    $0x403870,%edx
  402282:	be 01 00 00 00       	mov    $0x1,%esi
  402287:	48 8b 3d 52 32 20 00 	mov    0x203252(%rip),%rdi        # 6054e0 <stderr@@GLIBC_2.2.5>
  40228e:	b8 00 00 00 00       	mov    $0x0,%eax
  402293:	e8 d8 eb ff ff       	callq  400e70 <__fprintf_chk@plt>
  402298:	bf 01 00 00 00       	mov    $0x1,%edi
  40229d:	e8 ae eb ff ff       	callq  400e50 <exit@plt>

00000000004022a2 <rio_writen>:
  4022a2:	41 55                	push   %r13
  4022a4:	41 54                	push   %r12
  4022a6:	55                   	push   %rbp
  4022a7:	53                   	push   %rbx
  4022a8:	48 83 ec 08          	sub    $0x8,%rsp
  4022ac:	41 89 fc             	mov    %edi,%r12d
  4022af:	48 89 f5             	mov    %rsi,%rbp
  4022b2:	49 89 d5             	mov    %rdx,%r13
  4022b5:	48 89 d3             	mov    %rdx,%rbx
  4022b8:	eb 28                	jmp    4022e2 <rio_writen+0x40>
  4022ba:	48 89 da             	mov    %rbx,%rdx
  4022bd:	48 89 ee             	mov    %rbp,%rsi
  4022c0:	44 89 e7             	mov    %r12d,%edi
  4022c3:	e8 18 ea ff ff       	callq  400ce0 <write@plt>
  4022c8:	48 85 c0             	test   %rax,%rax
  4022cb:	7f 0f                	jg     4022dc <rio_writen+0x3a>
  4022cd:	e8 be e9 ff ff       	callq  400c90 <__errno_location@plt>
  4022d2:	83 38 04             	cmpl   $0x4,(%rax)
  4022d5:	75 15                	jne    4022ec <rio_writen+0x4a>
  4022d7:	b8 00 00 00 00       	mov    $0x0,%eax
  4022dc:	48 29 c3             	sub    %rax,%rbx
  4022df:	48 01 c5             	add    %rax,%rbp
  4022e2:	48 85 db             	test   %rbx,%rbx
  4022e5:	75 d3                	jne    4022ba <rio_writen+0x18>
  4022e7:	4c 89 e8             	mov    %r13,%rax
  4022ea:	eb 07                	jmp    4022f3 <rio_writen+0x51>
  4022ec:	48 c7 c0 ff ff ff ff 	mov    $0xffffffffffffffff,%rax
  4022f3:	48 83 c4 08          	add    $0x8,%rsp
  4022f7:	5b                   	pop    %rbx
  4022f8:	5d                   	pop    %rbp
  4022f9:	41 5c                	pop    %r12
  4022fb:	41 5d                	pop    %r13
  4022fd:	c3                   	retq   

00000000004022fe <rio_read>:
  4022fe:	41 55                	push   %r13
  402300:	41 54                	push   %r12
  402302:	55                   	push   %rbp
  402303:	53                   	push   %rbx
  402304:	48 83 ec 08          	sub    $0x8,%rsp
  402308:	48 89 fb             	mov    %rdi,%rbx
  40230b:	49 89 f5             	mov    %rsi,%r13
  40230e:	49 89 d4             	mov    %rdx,%r12
  402311:	eb 2e                	jmp    402341 <rio_read+0x43>
  402313:	48 8d 6b 10          	lea    0x10(%rbx),%rbp
  402317:	8b 3b                	mov    (%rbx),%edi
  402319:	ba 00 20 00 00       	mov    $0x2000,%edx
  40231e:	48 89 ee             	mov    %rbp,%rsi
  402321:	e8 1a ea ff ff       	callq  400d40 <read@plt>
  402326:	89 43 04             	mov    %eax,0x4(%rbx)
  402329:	85 c0                	test   %eax,%eax
  40232b:	79 0c                	jns    402339 <rio_read+0x3b>
  40232d:	e8 5e e9 ff ff       	callq  400c90 <__errno_location@plt>
  402332:	83 38 04             	cmpl   $0x4,(%rax)
  402335:	74 0a                	je     402341 <rio_read+0x43>
  402337:	eb 37                	jmp    402370 <rio_read+0x72>
  402339:	85 c0                	test   %eax,%eax
  40233b:	74 3c                	je     402379 <rio_read+0x7b>
  40233d:	48 89 6b 08          	mov    %rbp,0x8(%rbx)
  402341:	8b 6b 04             	mov    0x4(%rbx),%ebp
  402344:	85 ed                	test   %ebp,%ebp
  402346:	7e cb                	jle    402313 <rio_read+0x15>
  402348:	89 e8                	mov    %ebp,%eax
  40234a:	49 39 c4             	cmp    %rax,%r12
  40234d:	77 03                	ja     402352 <rio_read+0x54>
  40234f:	44 89 e5             	mov    %r12d,%ebp
  402352:	4c 63 e5             	movslq %ebp,%r12
  402355:	48 8b 73 08          	mov    0x8(%rbx),%rsi
  402359:	4c 89 e2             	mov    %r12,%rdx
  40235c:	4c 89 ef             	mov    %r13,%rdi
  40235f:	e8 3c ea ff ff       	callq  400da0 <memcpy@plt>
  402364:	4c 01 63 08          	add    %r12,0x8(%rbx)
  402368:	29 6b 04             	sub    %ebp,0x4(%rbx)
  40236b:	4c 89 e0             	mov    %r12,%rax
  40236e:	eb 0e                	jmp    40237e <rio_read+0x80>
  402370:	48 c7 c0 ff ff ff ff 	mov    $0xffffffffffffffff,%rax
  402377:	eb 05                	jmp    40237e <rio_read+0x80>
  402379:	b8 00 00 00 00       	mov    $0x0,%eax
  40237e:	48 83 c4 08          	add    $0x8,%rsp
  402382:	5b                   	pop    %rbx
  402383:	5d                   	pop    %rbp
  402384:	41 5c                	pop    %r12
  402386:	41 5d                	pop    %r13
  402388:	c3                   	retq   

0000000000402389 <rio_readlineb>:
  402389:	41 55                	push   %r13
  40238b:	41 54                	push   %r12
  40238d:	55                   	push   %rbp
  40238e:	53                   	push   %rbx
  40238f:	48 83 ec 18          	sub    $0x18,%rsp
  402393:	49 89 fd             	mov    %rdi,%r13
  402396:	48 89 f5             	mov    %rsi,%rbp
  402399:	49 89 d4             	mov    %rdx,%r12
  40239c:	64 48 8b 04 25 28 00 	mov    %fs:0x28,%rax
  4023a3:	00 00 
  4023a5:	48 89 44 24 08       	mov    %rax,0x8(%rsp)
  4023aa:	31 c0                	xor    %eax,%eax
  4023ac:	bb 01 00 00 00       	mov    $0x1,%ebx
  4023b1:	eb 3f                	jmp    4023f2 <rio_readlineb+0x69>
  4023b3:	ba 01 00 00 00       	mov    $0x1,%edx
  4023b8:	48 8d 74 24 07       	lea    0x7(%rsp),%rsi
  4023bd:	4c 89 ef             	mov    %r13,%rdi
  4023c0:	e8 39 ff ff ff       	callq  4022fe <rio_read>
  4023c5:	83 f8 01             	cmp    $0x1,%eax
  4023c8:	75 15                	jne    4023df <rio_readlineb+0x56>
  4023ca:	48 8d 45 01          	lea    0x1(%rbp),%rax
  4023ce:	0f b6 54 24 07       	movzbl 0x7(%rsp),%edx
  4023d3:	88 55 00             	mov    %dl,0x0(%rbp)
  4023d6:	80 7c 24 07 0a       	cmpb   $0xa,0x7(%rsp)
  4023db:	75 0e                	jne    4023eb <rio_readlineb+0x62>
  4023dd:	eb 1a                	jmp    4023f9 <rio_readlineb+0x70>
  4023df:	85 c0                	test   %eax,%eax
  4023e1:	75 22                	jne    402405 <rio_readlineb+0x7c>
  4023e3:	48 83 fb 01          	cmp    $0x1,%rbx
  4023e7:	75 13                	jne    4023fc <rio_readlineb+0x73>
  4023e9:	eb 23                	jmp    40240e <rio_readlineb+0x85>
  4023eb:	48 83 c3 01          	add    $0x1,%rbx
  4023ef:	48 89 c5             	mov    %rax,%rbp
  4023f2:	4c 39 e3             	cmp    %r12,%rbx
  4023f5:	72 bc                	jb     4023b3 <rio_readlineb+0x2a>
  4023f7:	eb 03                	jmp    4023fc <rio_readlineb+0x73>
  4023f9:	48 89 c5             	mov    %rax,%rbp
  4023fc:	c6 45 00 00          	movb   $0x0,0x0(%rbp)
  402400:	48 89 d8             	mov    %rbx,%rax
  402403:	eb 0e                	jmp    402413 <rio_readlineb+0x8a>
  402405:	48 c7 c0 ff ff ff ff 	mov    $0xffffffffffffffff,%rax
  40240c:	eb 05                	jmp    402413 <rio_readlineb+0x8a>
  40240e:	b8 00 00 00 00       	mov    $0x0,%eax
  402413:	48 8b 4c 24 08       	mov    0x8(%rsp),%rcx
  402418:	64 48 33 0c 25 28 00 	xor    %fs:0x28,%rcx
  40241f:	00 00 
  402421:	74 05                	je     402428 <rio_readlineb+0x9f>
  402423:	e8 c8 e8 ff ff       	callq  400cf0 <__stack_chk_fail@plt>
  402428:	48 83 c4 18          	add    $0x18,%rsp
  40242c:	5b                   	pop    %rbx
  40242d:	5d                   	pop    %rbp
  40242e:	41 5c                	pop    %r12
  402430:	41 5d                	pop    %r13
  402432:	c3                   	retq   

0000000000402433 <urlencode>:
  402433:	41 54                	push   %r12
  402435:	55                   	push   %rbp
  402436:	53                   	push   %rbx
  402437:	48 83 ec 10          	sub    $0x10,%rsp
  40243b:	48 89 fb             	mov    %rdi,%rbx
  40243e:	48 89 f5             	mov    %rsi,%rbp
  402441:	64 48 8b 04 25 28 00 	mov    %fs:0x28,%rax
  402448:	00 00 
  40244a:	48 89 44 24 08       	mov    %rax,0x8(%rsp)
  40244f:	31 c0                	xor    %eax,%eax
  402451:	48 c7 c1 ff ff ff ff 	mov    $0xffffffffffffffff,%rcx
  402458:	f2 ae                	repnz scas %es:(%rdi),%al
  40245a:	48 f7 d1             	not    %rcx
  40245d:	8d 41 ff             	lea    -0x1(%rcx),%eax
  402460:	e9 aa 00 00 00       	jmpq   40250f <urlencode+0xdc>
  402465:	44 0f b6 03          	movzbl (%rbx),%r8d
  402469:	41 80 f8 2a          	cmp    $0x2a,%r8b
  40246d:	0f 94 c2             	sete   %dl
  402470:	41 80 f8 2d          	cmp    $0x2d,%r8b
  402474:	0f 94 c0             	sete   %al
  402477:	08 c2                	or     %al,%dl
  402479:	75 24                	jne    40249f <urlencode+0x6c>
  40247b:	41 80 f8 2e          	cmp    $0x2e,%r8b
  40247f:	74 1e                	je     40249f <urlencode+0x6c>
  402481:	41 80 f8 5f          	cmp    $0x5f,%r8b
  402485:	74 18                	je     40249f <urlencode+0x6c>
  402487:	41 8d 40 d0          	lea    -0x30(%r8),%eax
  40248b:	3c 09                	cmp    $0x9,%al
  40248d:	76 10                	jbe    40249f <urlencode+0x6c>
  40248f:	41 8d 40 bf          	lea    -0x41(%r8),%eax
  402493:	3c 19                	cmp    $0x19,%al
  402495:	76 08                	jbe    40249f <urlencode+0x6c>
  402497:	41 8d 40 9f          	lea    -0x61(%r8),%eax
  40249b:	3c 19                	cmp    $0x19,%al
  40249d:	77 0a                	ja     4024a9 <urlencode+0x76>
  40249f:	44 88 45 00          	mov    %r8b,0x0(%rbp)
  4024a3:	48 8d 6d 01          	lea    0x1(%rbp),%rbp
  4024a7:	eb 5f                	jmp    402508 <urlencode+0xd5>
  4024a9:	41 80 f8 20          	cmp    $0x20,%r8b
  4024ad:	75 0a                	jne    4024b9 <urlencode+0x86>
  4024af:	c6 45 00 2b          	movb   $0x2b,0x0(%rbp)
  4024b3:	48 8d 6d 01          	lea    0x1(%rbp),%rbp
  4024b7:	eb 4f                	jmp    402508 <urlencode+0xd5>
  4024b9:	41 8d 40 e0          	lea    -0x20(%r8),%eax
  4024bd:	3c 5f                	cmp    $0x5f,%al
  4024bf:	0f 96 c2             	setbe  %dl
  4024c2:	41 80 f8 09          	cmp    $0x9,%r8b
  4024c6:	0f 94 c0             	sete   %al
  4024c9:	08 c2                	or     %al,%dl
  4024cb:	74 50                	je     40251d <urlencode+0xea>
  4024cd:	45 0f b6 c0          	movzbl %r8b,%r8d
  4024d1:	b9 08 39 40 00       	mov    $0x403908,%ecx
  4024d6:	ba 08 00 00 00       	mov    $0x8,%edx
  4024db:	be 01 00 00 00       	mov    $0x1,%esi
  4024e0:	48 89 e7             	mov    %rsp,%rdi
  4024e3:	b8 00 00 00 00       	mov    $0x0,%eax
  4024e8:	e8 93 e9 ff ff       	callq  400e80 <__sprintf_chk@plt>
  4024ed:	0f b6 04 24          	movzbl (%rsp),%eax
  4024f1:	88 45 00             	mov    %al,0x0(%rbp)
  4024f4:	0f b6 44 24 01       	movzbl 0x1(%rsp),%eax
  4024f9:	88 45 01             	mov    %al,0x1(%rbp)
  4024fc:	0f b6 44 24 02       	movzbl 0x2(%rsp),%eax
  402501:	88 45 02             	mov    %al,0x2(%rbp)
  402504:	48 8d 6d 03          	lea    0x3(%rbp),%rbp
  402508:	48 83 c3 01          	add    $0x1,%rbx
  40250c:	44 89 e0             	mov    %r12d,%eax
  40250f:	44 8d 60 ff          	lea    -0x1(%rax),%r12d
  402513:	85 c0                	test   %eax,%eax
  402515:	0f 85 4a ff ff ff    	jne    402465 <urlencode+0x32>
  40251b:	eb 05                	jmp    402522 <urlencode+0xef>
  40251d:	b8 ff ff ff ff       	mov    $0xffffffff,%eax
  402522:	48 8b 74 24 08       	mov    0x8(%rsp),%rsi
  402527:	64 48 33 34 25 28 00 	xor    %fs:0x28,%rsi
  40252e:	00 00 
  402530:	74 05                	je     402537 <urlencode+0x104>
  402532:	e8 b9 e7 ff ff       	callq  400cf0 <__stack_chk_fail@plt>
  402537:	48 83 c4 10          	add    $0x10,%rsp
  40253b:	5b                   	pop    %rbx
  40253c:	5d                   	pop    %rbp
  40253d:	41 5c                	pop    %r12
  40253f:	c3                   	retq   

0000000000402540 <submitr>:
  402540:	41 57                	push   %r15
  402542:	41 56                	push   %r14
  402544:	41 55                	push   %r13
  402546:	41 54                	push   %r12
  402548:	55                   	push   %rbp
  402549:	53                   	push   %rbx
  40254a:	48 81 ec 58 a0 00 00 	sub    $0xa058,%rsp
  402551:	49 89 fc             	mov    %rdi,%r12
  402554:	89 74 24 04          	mov    %esi,0x4(%rsp)
  402558:	49 89 d7             	mov    %rdx,%r15
  40255b:	49 89 ce             	mov    %rcx,%r14
  40255e:	4c 89 44 24 08       	mov    %r8,0x8(%rsp)
  402563:	4d 89 cd             	mov    %r9,%r13
  402566:	48 8b 9c 24 90 a0 00 	mov    0xa090(%rsp),%rbx
  40256d:	00 
  40256e:	64 48 8b 04 25 28 00 	mov    %fs:0x28,%rax
  402575:	00 00 
  402577:	48 89 84 24 48 a0 00 	mov    %rax,0xa048(%rsp)
  40257e:	00 
  40257f:	31 c0                	xor    %eax,%eax
  402581:	c7 44 24 1c 00 00 00 	movl   $0x0,0x1c(%rsp)
  402588:	00 
  402589:	ba 00 00 00 00       	mov    $0x0,%edx
  40258e:	be 01 00 00 00       	mov    $0x1,%esi
  402593:	bf 02 00 00 00       	mov    $0x2,%edi
  402598:	e8 f3 e8 ff ff       	callq  400e90 <socket@plt>
  40259d:	85 c0                	test   %eax,%eax
  40259f:	79 4e                	jns    4025ef <submitr+0xaf>
  4025a1:	48 b8 45 72 72 6f 72 	movabs $0x43203a726f727245,%rax
  4025a8:	3a 20 43 
  4025ab:	48 89 03             	mov    %rax,(%rbx)
  4025ae:	48 b8 6c 69 65 6e 74 	movabs $0x6e7520746e65696c,%rax
  4025b5:	20 75 6e 
  4025b8:	48 89 43 08          	mov    %rax,0x8(%rbx)
  4025bc:	48 b8 61 62 6c 65 20 	movabs $0x206f7420656c6261,%rax
  4025c3:	74 6f 20 
  4025c6:	48 89 43 10          	mov    %rax,0x10(%rbx)
  4025ca:	48 b8 63 72 65 61 74 	movabs $0x7320657461657263,%rax
  4025d1:	65 20 73 
  4025d4:	48 89 43 18          	mov    %rax,0x18(%rbx)
  4025d8:	c7 43 20 6f 63 6b 65 	movl   $0x656b636f,0x20(%rbx)
  4025df:	66 c7 43 24 74 00    	movw   $0x74,0x24(%rbx)
  4025e5:	b8 ff ff ff ff       	mov    $0xffffffff,%eax
  4025ea:	e9 97 06 00 00       	jmpq   402c86 <submitr+0x746>
  4025ef:	89 c5                	mov    %eax,%ebp
  4025f1:	4c 89 e7             	mov    %r12,%rdi
  4025f4:	e8 77 e7 ff ff       	callq  400d70 <gethostbyname@plt>
  4025f9:	48 85 c0             	test   %rax,%rax
  4025fc:	75 67                	jne    402665 <submitr+0x125>
  4025fe:	48 b8 45 72 72 6f 72 	movabs $0x44203a726f727245,%rax
  402605:	3a 20 44 
  402608:	48 89 03             	mov    %rax,(%rbx)
  40260b:	48 b8 4e 53 20 69 73 	movabs $0x6e7520736920534e,%rax
  402612:	20 75 6e 
  402615:	48 89 43 08          	mov    %rax,0x8(%rbx)
  402619:	48 b8 61 62 6c 65 20 	movabs $0x206f7420656c6261,%rax
  402620:	74 6f 20 
  402623:	48 89 43 10          	mov    %rax,0x10(%rbx)
  402627:	48 b8 72 65 73 6f 6c 	movabs $0x2065766c6f736572,%rax
  40262e:	76 65 20 
  402631:	48 89 43 18          	mov    %rax,0x18(%rbx)
  402635:	48 b8 73 65 72 76 65 	movabs $0x6120726576726573,%rax
  40263c:	72 20 61 
  40263f:	48 89 43 20          	mov    %rax,0x20(%rbx)
  402643:	c7 43 28 64 64 72 65 	movl   $0x65726464,0x28(%rbx)
  40264a:	66 c7 43 2c 73 73    	movw   $0x7373,0x2c(%rbx)
  402650:	c6 43 2e 00          	movb   $0x0,0x2e(%rbx)
  402654:	89 ef                	mov    %ebp,%edi
  402656:	e8 d5 e6 ff ff       	callq  400d30 <close@plt>
  40265b:	b8 ff ff ff ff       	mov    $0xffffffff,%eax
  402660:	e9 21 06 00 00       	jmpq   402c86 <submitr+0x746>
  402665:	48 c7 44 24 20 00 00 	movq   $0x0,0x20(%rsp)
  40266c:	00 00 
  40266e:	48 c7 44 24 28 00 00 	movq   $0x0,0x28(%rsp)
  402675:	00 00 
  402677:	66 c7 44 24 20 02 00 	movw   $0x2,0x20(%rsp)
  40267e:	48 63 50 14          	movslq 0x14(%rax),%rdx
  402682:	48 8b 40 18          	mov    0x18(%rax),%rax
  402686:	48 8b 30             	mov    (%rax),%rsi
  402689:	48 8d 7c 24 24       	lea    0x24(%rsp),%rdi
  40268e:	b9 0c 00 00 00       	mov    $0xc,%ecx
  402693:	e8 e8 e6 ff ff       	callq  400d80 <__memmove_chk@plt>
  402698:	0f b7 44 24 04       	movzwl 0x4(%rsp),%eax
  40269d:	66 c1 c8 08          	ror    $0x8,%ax
  4026a1:	66 89 44 24 22       	mov    %ax,0x22(%rsp)
  4026a6:	ba 10 00 00 00       	mov    $0x10,%edx
  4026ab:	48 8d 74 24 20       	lea    0x20(%rsp),%rsi
  4026b0:	89 ef                	mov    %ebp,%edi
  4026b2:	e8 a9 e7 ff ff       	callq  400e60 <connect@plt>
  4026b7:	85 c0                	test   %eax,%eax
  4026b9:	79 59                	jns    402714 <submitr+0x1d4>
  4026bb:	48 b8 45 72 72 6f 72 	movabs $0x55203a726f727245,%rax
  4026c2:	3a 20 55 
  4026c5:	48 89 03             	mov    %rax,(%rbx)
  4026c8:	48 b8 6e 61 62 6c 65 	movabs $0x6f7420656c62616e,%rax
  4026cf:	20 74 6f 
  4026d2:	48 89 43 08          	mov    %rax,0x8(%rbx)
  4026d6:	48 b8 20 63 6f 6e 6e 	movabs $0x7463656e6e6f6320,%rax
  4026dd:	65 63 74 
  4026e0:	48 89 43 10          	mov    %rax,0x10(%rbx)
  4026e4:	48 b8 20 74 6f 20 74 	movabs $0x20656874206f7420,%rax
  4026eb:	68 65 20 
  4026ee:	48 89 43 18          	mov    %rax,0x18(%rbx)
  4026f2:	c7 43 20 73 65 72 76 	movl   $0x76726573,0x20(%rbx)
  4026f9:	66 c7 43 24 65 72    	movw   $0x7265,0x24(%rbx)
  4026ff:	c6 43 26 00          	movb   $0x0,0x26(%rbx)
  402703:	89 ef                	mov    %ebp,%edi
  402705:	e8 26 e6 ff ff       	callq  400d30 <close@plt>
  40270a:	b8 ff ff ff ff       	mov    $0xffffffff,%eax
  40270f:	e9 72 05 00 00       	jmpq   402c86 <submitr+0x746>
  402714:	48 c7 c6 ff ff ff ff 	mov    $0xffffffffffffffff,%rsi
  40271b:	b8 00 00 00 00       	mov    $0x0,%eax
  402720:	48 89 f1             	mov    %rsi,%rcx
  402723:	4c 89 ef             	mov    %r13,%rdi
  402726:	f2 ae                	repnz scas %es:(%rdi),%al
  402728:	48 f7 d1             	not    %rcx
  40272b:	48 89 ca             	mov    %rcx,%rdx
  40272e:	48 89 f1             	mov    %rsi,%rcx
  402731:	4c 89 ff             	mov    %r15,%rdi
  402734:	f2 ae                	repnz scas %es:(%rdi),%al
  402736:	48 f7 d1             	not    %rcx
  402739:	49 89 c8             	mov    %rcx,%r8
  40273c:	48 89 f1             	mov    %rsi,%rcx
  40273f:	4c 89 f7             	mov    %r14,%rdi
  402742:	f2 ae                	repnz scas %es:(%rdi),%al
  402744:	48 f7 d1             	not    %rcx
  402747:	4d 8d 44 08 fe       	lea    -0x2(%r8,%rcx,1),%r8
  40274c:	48 89 f1             	mov    %rsi,%rcx
  40274f:	48 8b 7c 24 08       	mov    0x8(%rsp),%rdi
  402754:	f2 ae                	repnz scas %es:(%rdi),%al
  402756:	48 89 c8             	mov    %rcx,%rax
  402759:	48 f7 d0             	not    %rax
  40275c:	49 8d 4c 00 ff       	lea    -0x1(%r8,%rax,1),%rcx
  402761:	48 8d 44 52 fd       	lea    -0x3(%rdx,%rdx,2),%rax
  402766:	48 8d 84 01 80 00 00 	lea    0x80(%rcx,%rax,1),%rax
  40276d:	00 
  40276e:	48 3d 00 20 00 00    	cmp    $0x2000,%rax
  402774:	76 72                	jbe    4027e8 <submitr+0x2a8>
  402776:	48 b8 45 72 72 6f 72 	movabs $0x52203a726f727245,%rax
  40277d:	3a 20 52 
  402780:	48 89 03             	mov    %rax,(%rbx)
  402783:	48 b8 65 73 75 6c 74 	movabs $0x747320746c757365,%rax
  40278a:	20 73 74 
  40278d:	48 89 43 08          	mov    %rax,0x8(%rbx)
  402791:	48 b8 72 69 6e 67 20 	movabs $0x6f6f7420676e6972,%rax
  402798:	74 6f 6f 
  40279b:	48 89 43 10          	mov    %rax,0x10(%rbx)
  40279f:	48 b8 20 6c 61 72 67 	movabs $0x202e656772616c20,%rax
  4027a6:	65 2e 20 
  4027a9:	48 89 43 18          	mov    %rax,0x18(%rbx)
  4027ad:	48 b8 49 6e 63 72 65 	movabs $0x6573616572636e49,%rax
  4027b4:	61 73 65 
  4027b7:	48 89 43 20          	mov    %rax,0x20(%rbx)
  4027bb:	48 b8 20 53 55 42 4d 	movabs $0x5254494d42555320,%rax
  4027c2:	49 54 52 
  4027c5:	48 89 43 28          	mov    %rax,0x28(%rbx)
  4027c9:	48 b8 5f 4d 41 58 42 	movabs $0x46554258414d5f,%rax
  4027d0:	55 46 00 
  4027d3:	48 89 43 30          	mov    %rax,0x30(%rbx)
  4027d7:	89 ef                	mov    %ebp,%edi
  4027d9:	e8 52 e5 ff ff       	callq  400d30 <close@plt>
  4027de:	b8 ff ff ff ff       	mov    $0xffffffff,%eax
  4027e3:	e9 9e 04 00 00       	jmpq   402c86 <submitr+0x746>
  4027e8:	48 8d b4 24 40 40 00 	lea    0x4040(%rsp),%rsi
  4027ef:	00 
  4027f0:	b9 00 04 00 00       	mov    $0x400,%ecx
  4027f5:	b8 00 00 00 00       	mov    $0x0,%eax
  4027fa:	48 89 f7             	mov    %rsi,%rdi
  4027fd:	f3 48 ab             	rep stos %rax,%es:(%rdi)
  402800:	4c 89 ef             	mov    %r13,%rdi
  402803:	e8 2b fc ff ff       	callq  402433 <urlencode>
  402808:	85 c0                	test   %eax,%eax
  40280a:	0f 89 8a 00 00 00    	jns    40289a <submitr+0x35a>
  402810:	48 b8 45 72 72 6f 72 	movabs $0x52203a726f727245,%rax
  402817:	3a 20 52 
  40281a:	48 89 03             	mov    %rax,(%rbx)
  40281d:	48 b8 65 73 75 6c 74 	movabs $0x747320746c757365,%rax
  402824:	20 73 74 
  402827:	48 89 43 08          	mov    %rax,0x8(%rbx)
  40282b:	48 b8 72 69 6e 67 20 	movabs $0x6e6f6320676e6972,%rax
  402832:	63 6f 6e 
  402835:	48 89 43 10          	mov    %rax,0x10(%rbx)
  402839:	48 b8 74 61 69 6e 73 	movabs $0x6e6120736e696174,%rax
  402840:	20 61 6e 
  402843:	48 89 43 18          	mov    %rax,0x18(%rbx)
  402847:	48 b8 20 69 6c 6c 65 	movabs $0x6c6167656c6c6920,%rax
  40284e:	67 61 6c 
  402851:	48 89 43 20          	mov    %rax,0x20(%rbx)
  402855:	48 b8 20 6f 72 20 75 	movabs $0x72706e7520726f20,%rax
  40285c:	6e 70 72 
  40285f:	48 89 43 28          	mov    %rax,0x28(%rbx)
  402863:	48 b8 69 6e 74 61 62 	movabs $0x20656c6261746e69,%rax
  40286a:	6c 65 20 
  40286d:	48 89 43 30          	mov    %rax,0x30(%rbx)
  402871:	48 b8 63 68 61 72 61 	movabs $0x6574636172616863,%rax
  402878:	63 74 65 
  40287b:	48 89 43 38          	mov    %rax,0x38(%rbx)
  40287f:	66 c7 43 40 72 2e    	movw   $0x2e72,0x40(%rbx)
  402885:	c6 43 42 00          	movb   $0x0,0x42(%rbx)
  402889:	89 ef                	mov    %ebp,%edi
  40288b:	e8 a0 e4 ff ff       	callq  400d30 <close@plt>
  402890:	b8 ff ff ff ff       	mov    $0xffffffff,%eax
  402895:	e9 ec 03 00 00       	jmpq   402c86 <submitr+0x746>
  40289a:	4c 8d ac 24 40 20 00 	lea    0x2040(%rsp),%r13
  4028a1:	00 
  4028a2:	41 54                	push   %r12
  4028a4:	48 8d 84 24 48 40 00 	lea    0x4048(%rsp),%rax
  4028ab:	00 
  4028ac:	50                   	push   %rax
  4028ad:	4d 89 f9             	mov    %r15,%r9
  4028b0:	4d 89 f0             	mov    %r14,%r8
  4028b3:	b9 98 38 40 00       	mov    $0x403898,%ecx
  4028b8:	ba 00 20 00 00       	mov    $0x2000,%edx
  4028bd:	be 01 00 00 00       	mov    $0x1,%esi
  4028c2:	4c 89 ef             	mov    %r13,%rdi
  4028c5:	b8 00 00 00 00       	mov    $0x0,%eax
  4028ca:	e8 b1 e5 ff ff       	callq  400e80 <__sprintf_chk@plt>
  4028cf:	b8 00 00 00 00       	mov    $0x0,%eax
  4028d4:	48 c7 c1 ff ff ff ff 	mov    $0xffffffffffffffff,%rcx
  4028db:	4c 89 ef             	mov    %r13,%rdi
  4028de:	f2 ae                	repnz scas %es:(%rdi),%al
  4028e0:	48 f7 d1             	not    %rcx
  4028e3:	48 8d 51 ff          	lea    -0x1(%rcx),%rdx
  4028e7:	4c 89 ee             	mov    %r13,%rsi
  4028ea:	89 ef                	mov    %ebp,%edi
  4028ec:	e8 b1 f9 ff ff       	callq  4022a2 <rio_writen>
  4028f1:	48 83 c4 10          	add    $0x10,%rsp
  4028f5:	48 85 c0             	test   %rax,%rax
  4028f8:	79 6e                	jns    402968 <submitr+0x428>
  4028fa:	48 b8 45 72 72 6f 72 	movabs $0x43203a726f727245,%rax
  402901:	3a 20 43 
  402904:	48 89 03             	mov    %rax,(%rbx)
  402907:	48 b8 6c 69 65 6e 74 	movabs $0x6e7520746e65696c,%rax
  40290e:	20 75 6e 
  402911:	48 89 43 08          	mov    %rax,0x8(%rbx)
  402915:	48 b8 61 62 6c 65 20 	movabs $0x206f7420656c6261,%rax
  40291c:	74 6f 20 
  40291f:	48 89 43 10          	mov    %rax,0x10(%rbx)
  402923:	48 b8 77 72 69 74 65 	movabs $0x6f74206574697277,%rax
  40292a:	20 74 6f 
  40292d:	48 89 43 18          	mov    %rax,0x18(%rbx)
  402931:	48 b8 20 74 68 65 20 	movabs $0x7365722065687420,%rax
  402938:	72 65 73 
  40293b:	48 89 43 20          	mov    %rax,0x20(%rbx)
  40293f:	48 b8 75 6c 74 20 73 	movabs $0x7672657320746c75,%rax
  402946:	65 72 76 
  402949:	48 89 43 28          	mov    %rax,0x28(%rbx)
  40294d:	66 c7 43 30 65 72    	movw   $0x7265,0x30(%rbx)
  402953:	c6 43 32 00          	movb   $0x0,0x32(%rbx)
  402957:	89 ef                	mov    %ebp,%edi
  402959:	e8 d2 e3 ff ff       	callq  400d30 <close@plt>
  40295e:	b8 ff ff ff ff       	mov    $0xffffffff,%eax
  402963:	e9 1e 03 00 00       	jmpq   402c86 <submitr+0x746>
  402968:	89 ee                	mov    %ebp,%esi
  40296a:	48 8d 7c 24 30       	lea    0x30(%rsp),%rdi
  40296f:	e8 ee f8 ff ff       	callq  402262 <rio_readinitb>
  402974:	ba 00 20 00 00       	mov    $0x2000,%edx
  402979:	48 8d b4 24 40 20 00 	lea    0x2040(%rsp),%rsi
  402980:	00 
  402981:	48 8d 7c 24 30       	lea    0x30(%rsp),%rdi
  402986:	e8 fe f9 ff ff       	callq  402389 <rio_readlineb>
  40298b:	48 85 c0             	test   %rax,%rax
  40298e:	7f 7d                	jg     402a0d <submitr+0x4cd>
  402990:	48 b8 45 72 72 6f 72 	movabs $0x43203a726f727245,%rax
  402997:	3a 20 43 
  40299a:	48 89 03             	mov    %rax,(%rbx)
  40299d:	48 b8 6c 69 65 6e 74 	movabs $0x6e7520746e65696c,%rax
  4029a4:	20 75 6e 
  4029a7:	48 89 43 08          	mov    %rax,0x8(%rbx)
  4029ab:	48 b8 61 62 6c 65 20 	movabs $0x206f7420656c6261,%rax
  4029b2:	74 6f 20 
  4029b5:	48 89 43 10          	mov    %rax,0x10(%rbx)
  4029b9:	48 b8 72 65 61 64 20 	movabs $0x7269662064616572,%rax
  4029c0:	66 69 72 
  4029c3:	48 89 43 18          	mov    %rax,0x18(%rbx)
  4029c7:	48 b8 73 74 20 68 65 	movabs $0x6564616568207473,%rax
  4029ce:	61 64 65 
  4029d1:	48 89 43 20          	mov    %rax,0x20(%rbx)
  4029d5:	48 b8 72 20 66 72 6f 	movabs $0x72206d6f72662072,%rax
  4029dc:	6d 20 72 
  4029df:	48 89 43 28          	mov    %rax,0x28(%rbx)
  4029e3:	48 b8 65 73 75 6c 74 	movabs $0x657320746c757365,%rax
  4029ea:	20 73 65 
  4029ed:	48 89 43 30          	mov    %rax,0x30(%rbx)
  4029f1:	c7 43 38 72 76 65 72 	movl   $0x72657672,0x38(%rbx)
  4029f8:	c6 43 3c 00          	movb   $0x0,0x3c(%rbx)
  4029fc:	89 ef                	mov    %ebp,%edi
  4029fe:	e8 2d e3 ff ff       	callq  400d30 <close@plt>
  402a03:	b8 ff ff ff ff       	mov    $0xffffffff,%eax
  402a08:	e9 79 02 00 00       	jmpq   402c86 <submitr+0x746>
  402a0d:	4c 8d 84 24 40 80 00 	lea    0x8040(%rsp),%r8
  402a14:	00 
  402a15:	48 8d 4c 24 1c       	lea    0x1c(%rsp),%rcx
  402a1a:	48 8d 94 24 40 60 00 	lea    0x6040(%rsp),%rdx
  402a21:	00 
  402a22:	be 0f 39 40 00       	mov    $0x40390f,%esi
  402a27:	48 8d bc 24 40 20 00 	lea    0x2040(%rsp),%rdi
  402a2e:	00 
  402a2f:	b8 00 00 00 00       	mov    $0x0,%eax
  402a34:	e8 a7 e3 ff ff       	callq  400de0 <__isoc99_sscanf@plt>
  402a39:	e9 95 00 00 00       	jmpq   402ad3 <submitr+0x593>
  402a3e:	ba 00 20 00 00       	mov    $0x2000,%edx
  402a43:	48 8d b4 24 40 20 00 	lea    0x2040(%rsp),%rsi
  402a4a:	00 
  402a4b:	48 8d 7c 24 30       	lea    0x30(%rsp),%rdi
  402a50:	e8 34 f9 ff ff       	callq  402389 <rio_readlineb>
  402a55:	48 85 c0             	test   %rax,%rax
  402a58:	7f 79                	jg     402ad3 <submitr+0x593>
  402a5a:	48 b8 45 72 72 6f 72 	movabs $0x43203a726f727245,%rax
  402a61:	3a 20 43 
  402a64:	48 89 03             	mov    %rax,(%rbx)
  402a67:	48 b8 6c 69 65 6e 74 	movabs $0x6e7520746e65696c,%rax
  402a6e:	20 75 6e 
  402a71:	48 89 43 08          	mov    %rax,0x8(%rbx)
  402a75:	48 b8 61 62 6c 65 20 	movabs $0x206f7420656c6261,%rax
  402a7c:	74 6f 20 
  402a7f:	48 89 43 10          	mov    %rax,0x10(%rbx)
  402a83:	48 b8 72 65 61 64 20 	movabs $0x6165682064616572,%rax
  402a8a:	68 65 61 
  402a8d:	48 89 43 18          	mov    %rax,0x18(%rbx)
  402a91:	48 b8 64 65 72 73 20 	movabs $0x6f72662073726564,%rax
  402a98:	66 72 6f 
  402a9b:	48 89 43 20          	mov    %rax,0x20(%rbx)
  402a9f:	48 b8 6d 20 74 68 65 	movabs $0x657220656874206d,%rax
  402aa6:	20 72 65 
  402aa9:	48 89 43 28          	mov    %rax,0x28(%rbx)
  402aad:	48 b8 73 75 6c 74 20 	movabs $0x72657320746c7573,%rax
  402ab4:	73 65 72 
  402ab7:	48 89 43 30          	mov    %rax,0x30(%rbx)
  402abb:	c7 43 38 76 65 72 00 	movl   $0x726576,0x38(%rbx)
  402ac2:	89 ef                	mov    %ebp,%edi
  402ac4:	e8 67 e2 ff ff       	callq  400d30 <close@plt>
  402ac9:	b8 ff ff ff ff       	mov    $0xffffffff,%eax
  402ace:	e9 b3 01 00 00       	jmpq   402c86 <submitr+0x746>
  402ad3:	0f b6 94 24 40 20 00 	movzbl 0x2040(%rsp),%edx
  402ada:	00 
  402adb:	b8 0d 00 00 00       	mov    $0xd,%eax
  402ae0:	29 d0                	sub    %edx,%eax
  402ae2:	75 1b                	jne    402aff <submitr+0x5bf>
  402ae4:	0f b6 94 24 41 20 00 	movzbl 0x2041(%rsp),%edx
  402aeb:	00 
  402aec:	b8 0a 00 00 00       	mov    $0xa,%eax
  402af1:	29 d0                	sub    %edx,%eax
  402af3:	75 0a                	jne    402aff <submitr+0x5bf>
  402af5:	0f b6 84 24 42 20 00 	movzbl 0x2042(%rsp),%eax
  402afc:	00 
  402afd:	f7 d8                	neg    %eax
  402aff:	85 c0                	test   %eax,%eax
  402b01:	0f 85 37 ff ff ff    	jne    402a3e <submitr+0x4fe>
  402b07:	ba 00 20 00 00       	mov    $0x2000,%edx
  402b0c:	48 8d b4 24 40 20 00 	lea    0x2040(%rsp),%rsi
  402b13:	00 
  402b14:	48 8d 7c 24 30       	lea    0x30(%rsp),%rdi
  402b19:	e8 6b f8 ff ff       	callq  402389 <rio_readlineb>
  402b1e:	48 85 c0             	test   %rax,%rax
  402b21:	0f 8f 83 00 00 00    	jg     402baa <submitr+0x66a>
  402b27:	48 b8 45 72 72 6f 72 	movabs $0x43203a726f727245,%rax
  402b2e:	3a 20 43 
  402b31:	48 89 03             	mov    %rax,(%rbx)
  402b34:	48 b8 6c 69 65 6e 74 	movabs $0x6e7520746e65696c,%rax
  402b3b:	20 75 6e 
  402b3e:	48 89 43 08          	mov    %rax,0x8(%rbx)
  402b42:	48 b8 61 62 6c 65 20 	movabs $0x206f7420656c6261,%rax
  402b49:	74 6f 20 
  402b4c:	48 89 43 10          	mov    %rax,0x10(%rbx)
  402b50:	48 b8 72 65 61 64 20 	movabs $0x6174732064616572,%rax
  402b57:	73 74 61 
  402b5a:	48 89 43 18          	mov    %rax,0x18(%rbx)
  402b5e:	48 b8 74 75 73 20 6d 	movabs $0x7373656d20737574,%rax
  402b65:	65 73 73 
  402b68:	48 89 43 20          	mov    %rax,0x20(%rbx)
  402b6c:	48 b8 61 67 65 20 66 	movabs $0x6d6f726620656761,%rax
  402b73:	72 6f 6d 
  402b76:	48 89 43 28          	mov    %rax,0x28(%rbx)
  402b7a:	48 b8 20 72 65 73 75 	movabs $0x20746c7573657220,%rax
  402b81:	6c 74 20 
  402b84:	48 89 43 30          	mov    %rax,0x30(%rbx)
  402b88:	c7 43 38 73 65 72 76 	movl   $0x76726573,0x38(%rbx)
  402b8f:	66 c7 43 3c 65 72    	movw   $0x7265,0x3c(%rbx)
  402b95:	c6 43 3e 00          	movb   $0x0,0x3e(%rbx)
  402b99:	89 ef                	mov    %ebp,%edi
  402b9b:	e8 90 e1 ff ff       	callq  400d30 <close@plt>
  402ba0:	b8 ff ff ff ff       	mov    $0xffffffff,%eax
  402ba5:	e9 dc 00 00 00       	jmpq   402c86 <submitr+0x746>
  402baa:	44 8b 44 24 1c       	mov    0x1c(%rsp),%r8d
  402baf:	41 81 f8 c8 00 00 00 	cmp    $0xc8,%r8d
  402bb6:	74 37                	je     402bef <submitr+0x6af>
  402bb8:	4c 8d 8c 24 40 80 00 	lea    0x8040(%rsp),%r9
  402bbf:	00 
  402bc0:	b9 d8 38 40 00       	mov    $0x4038d8,%ecx
  402bc5:	48 c7 c2 ff ff ff ff 	mov    $0xffffffffffffffff,%rdx
  402bcc:	be 01 00 00 00       	mov    $0x1,%esi
  402bd1:	48 89 df             	mov    %rbx,%rdi
  402bd4:	b8 00 00 00 00       	mov    $0x0,%eax
  402bd9:	e8 a2 e2 ff ff       	callq  400e80 <__sprintf_chk@plt>
  402bde:	89 ef                	mov    %ebp,%edi
  402be0:	e8 4b e1 ff ff       	callq  400d30 <close@plt>
  402be5:	b8 ff ff ff ff       	mov    $0xffffffff,%eax
  402bea:	e9 97 00 00 00       	jmpq   402c86 <submitr+0x746>
  402bef:	48 8d b4 24 40 20 00 	lea    0x2040(%rsp),%rsi
  402bf6:	00 
  402bf7:	48 89 df             	mov    %rbx,%rdi
  402bfa:	e8 c1 e0 ff ff       	callq  400cc0 <strcpy@plt>
  402bff:	89 ef                	mov    %ebp,%edi
  402c01:	e8 2a e1 ff ff       	callq  400d30 <close@plt>
  402c06:	0f b6 03             	movzbl (%rbx),%eax
  402c09:	ba 4f 00 00 00       	mov    $0x4f,%edx
  402c0e:	29 c2                	sub    %eax,%edx
  402c10:	75 22                	jne    402c34 <submitr+0x6f4>
  402c12:	0f b6 4b 01          	movzbl 0x1(%rbx),%ecx
  402c16:	b8 4b 00 00 00       	mov    $0x4b,%eax
  402c1b:	29 c8                	sub    %ecx,%eax
  402c1d:	75 17                	jne    402c36 <submitr+0x6f6>
  402c1f:	0f b6 4b 02          	movzbl 0x2(%rbx),%ecx
  402c23:	b8 0a 00 00 00       	mov    $0xa,%eax
  402c28:	29 c8                	sub    %ecx,%eax
  402c2a:	75 0a                	jne    402c36 <submitr+0x6f6>
  402c2c:	0f b6 43 03          	movzbl 0x3(%rbx),%eax
  402c30:	f7 d8                	neg    %eax
  402c32:	eb 02                	jmp    402c36 <submitr+0x6f6>
  402c34:	89 d0                	mov    %edx,%eax
  402c36:	85 c0                	test   %eax,%eax
  402c38:	74 40                	je     402c7a <submitr+0x73a>
  402c3a:	bf 20 39 40 00       	mov    $0x403920,%edi
  402c3f:	b9 05 00 00 00       	mov    $0x5,%ecx
  402c44:	48 89 de             	mov    %rbx,%rsi
  402c47:	f3 a6                	repz cmpsb %es:(%rdi),%ds:(%rsi)
  402c49:	0f 97 c0             	seta   %al
  402c4c:	0f 92 c1             	setb   %cl
  402c4f:	29 c8                	sub    %ecx,%eax
  402c51:	0f be c0             	movsbl %al,%eax
  402c54:	85 c0                	test   %eax,%eax
  402c56:	74 2e                	je     402c86 <submitr+0x746>
  402c58:	85 d2                	test   %edx,%edx
  402c5a:	75 13                	jne    402c6f <submitr+0x72f>
  402c5c:	0f b6 43 01          	movzbl 0x1(%rbx),%eax
  402c60:	ba 4b 00 00 00       	mov    $0x4b,%edx
  402c65:	29 c2                	sub    %eax,%edx
  402c67:	75 06                	jne    402c6f <submitr+0x72f>
  402c69:	0f b6 53 02          	movzbl 0x2(%rbx),%edx
  402c6d:	f7 da                	neg    %edx
  402c6f:	85 d2                	test   %edx,%edx
  402c71:	75 0e                	jne    402c81 <submitr+0x741>
  402c73:	b8 00 00 00 00       	mov    $0x0,%eax
  402c78:	eb 0c                	jmp    402c86 <submitr+0x746>
  402c7a:	b8 00 00 00 00       	mov    $0x0,%eax
  402c7f:	eb 05                	jmp    402c86 <submitr+0x746>
  402c81:	b8 ff ff ff ff       	mov    $0xffffffff,%eax
  402c86:	48 8b 9c 24 48 a0 00 	mov    0xa048(%rsp),%rbx
  402c8d:	00 
  402c8e:	64 48 33 1c 25 28 00 	xor    %fs:0x28,%rbx
  402c95:	00 00 
  402c97:	74 05                	je     402c9e <submitr+0x75e>
  402c99:	e8 52 e0 ff ff       	callq  400cf0 <__stack_chk_fail@plt>
  402c9e:	48 81 c4 58 a0 00 00 	add    $0xa058,%rsp
  402ca5:	5b                   	pop    %rbx
  402ca6:	5d                   	pop    %rbp
  402ca7:	41 5c                	pop    %r12
  402ca9:	41 5d                	pop    %r13
  402cab:	41 5e                	pop    %r14
  402cad:	41 5f                	pop    %r15
  402caf:	c3                   	retq   

0000000000402cb0 <init_timeout>:
  402cb0:	85 ff                	test   %edi,%edi
  402cb2:	74 23                	je     402cd7 <init_timeout+0x27>
  402cb4:	53                   	push   %rbx
  402cb5:	89 fb                	mov    %edi,%ebx
  402cb7:	85 ff                	test   %edi,%edi
  402cb9:	79 05                	jns    402cc0 <init_timeout+0x10>
  402cbb:	bb 00 00 00 00       	mov    $0x0,%ebx
  402cc0:	be 74 22 40 00       	mov    $0x402274,%esi
  402cc5:	bf 0e 00 00 00       	mov    $0xe,%edi
  402cca:	e8 91 e0 ff ff       	callq  400d60 <signal@plt>
  402ccf:	89 df                	mov    %ebx,%edi
  402cd1:	e8 4a e0 ff ff       	callq  400d20 <alarm@plt>
  402cd6:	5b                   	pop    %rbx
  402cd7:	f3 c3                	repz retq 

0000000000402cd9 <init_driver>:
  402cd9:	55                   	push   %rbp
  402cda:	53                   	push   %rbx
  402cdb:	48 83 ec 28          	sub    $0x28,%rsp
  402cdf:	48 89 fd             	mov    %rdi,%rbp
  402ce2:	64 48 8b 04 25 28 00 	mov    %fs:0x28,%rax
  402ce9:	00 00 
  402ceb:	48 89 44 24 18       	mov    %rax,0x18(%rsp)
  402cf0:	31 c0                	xor    %eax,%eax
  402cf2:	be 01 00 00 00       	mov    $0x1,%esi
  402cf7:	bf 0d 00 00 00       	mov    $0xd,%edi
  402cfc:	e8 5f e0 ff ff       	callq  400d60 <signal@plt>
  402d01:	be 01 00 00 00       	mov    $0x1,%esi
  402d06:	bf 1d 00 00 00       	mov    $0x1d,%edi
  402d0b:	e8 50 e0 ff ff       	callq  400d60 <signal@plt>
  402d10:	be 01 00 00 00       	mov    $0x1,%esi
  402d15:	bf 1d 00 00 00       	mov    $0x1d,%edi
  402d1a:	e8 41 e0 ff ff       	callq  400d60 <signal@plt>
  402d1f:	ba 00 00 00 00       	mov    $0x0,%edx
  402d24:	be 01 00 00 00       	mov    $0x1,%esi
  402d29:	bf 02 00 00 00       	mov    $0x2,%edi
  402d2e:	e8 5d e1 ff ff       	callq  400e90 <socket@plt>
  402d33:	85 c0                	test   %eax,%eax
  402d35:	79 4f                	jns    402d86 <init_driver+0xad>
  402d37:	48 b8 45 72 72 6f 72 	movabs $0x43203a726f727245,%rax
  402d3e:	3a 20 43 
  402d41:	48 89 45 00          	mov    %rax,0x0(%rbp)
  402d45:	48 b8 6c 69 65 6e 74 	movabs $0x6e7520746e65696c,%rax
  402d4c:	20 75 6e 
  402d4f:	48 89 45 08          	mov    %rax,0x8(%rbp)
  402d53:	48 b8 61 62 6c 65 20 	movabs $0x206f7420656c6261,%rax
  402d5a:	74 6f 20 
  402d5d:	48 89 45 10          	mov    %rax,0x10(%rbp)
  402d61:	48 b8 63 72 65 61 74 	movabs $0x7320657461657263,%rax
  402d68:	65 20 73 
  402d6b:	48 89 45 18          	mov    %rax,0x18(%rbp)
  402d6f:	c7 45 20 6f 63 6b 65 	movl   $0x656b636f,0x20(%rbp)
  402d76:	66 c7 45 24 74 00    	movw   $0x74,0x24(%rbp)
  402d7c:	b8 ff ff ff ff       	mov    $0xffffffff,%eax
  402d81:	e9 2a 01 00 00       	jmpq   402eb0 <init_driver+0x1d7>
  402d86:	89 c3                	mov    %eax,%ebx
  402d88:	bf 25 39 40 00       	mov    $0x403925,%edi
  402d8d:	e8 de df ff ff       	callq  400d70 <gethostbyname@plt>
  402d92:	48 85 c0             	test   %rax,%rax
  402d95:	75 68                	jne    402dff <init_driver+0x126>
  402d97:	48 b8 45 72 72 6f 72 	movabs $0x44203a726f727245,%rax
  402d9e:	3a 20 44 
  402da1:	48 89 45 00          	mov    %rax,0x0(%rbp)
  402da5:	48 b8 4e 53 20 69 73 	movabs $0x6e7520736920534e,%rax
  402dac:	20 75 6e 
  402daf:	48 89 45 08          	mov    %rax,0x8(%rbp)
  402db3:	48 b8 61 62 6c 65 20 	movabs $0x206f7420656c6261,%rax
  402dba:	74 6f 20 
  402dbd:	48 89 45 10          	mov    %rax,0x10(%rbp)
  402dc1:	48 b8 72 65 73 6f 6c 	movabs $0x2065766c6f736572,%rax
  402dc8:	76 65 20 
  402dcb:	48 89 45 18          	mov    %rax,0x18(%rbp)
  402dcf:	48 b8 73 65 72 76 65 	movabs $0x6120726576726573,%rax
  402dd6:	72 20 61 
  402dd9:	48 89 45 20          	mov    %rax,0x20(%rbp)
  402ddd:	c7 45 28 64 64 72 65 	movl   $0x65726464,0x28(%rbp)
  402de4:	66 c7 45 2c 73 73    	movw   $0x7373,0x2c(%rbp)
  402dea:	c6 45 2e 00          	movb   $0x0,0x2e(%rbp)
  402dee:	89 df                	mov    %ebx,%edi
  402df0:	e8 3b df ff ff       	callq  400d30 <close@plt>
  402df5:	b8 ff ff ff ff       	mov    $0xffffffff,%eax
  402dfa:	e9 b1 00 00 00       	jmpq   402eb0 <init_driver+0x1d7>
  402dff:	48 c7 04 24 00 00 00 	movq   $0x0,(%rsp)
  402e06:	00 
  402e07:	48 c7 44 24 08 00 00 	movq   $0x0,0x8(%rsp)
  402e0e:	00 00 
  402e10:	66 c7 04 24 02 00    	movw   $0x2,(%rsp)
  402e16:	48 63 50 14          	movslq 0x14(%rax),%rdx
  402e1a:	48 8b 40 18          	mov    0x18(%rax),%rax
  402e1e:	48 8b 30             	mov    (%rax),%rsi
  402e21:	48 8d 7c 24 04       	lea    0x4(%rsp),%rdi
  402e26:	b9 0c 00 00 00       	mov    $0xc,%ecx
  402e2b:	e8 50 df ff ff       	callq  400d80 <__memmove_chk@plt>
  402e30:	66 c7 44 24 02 3c 9a 	movw   $0x9a3c,0x2(%rsp)
  402e37:	ba 10 00 00 00       	mov    $0x10,%edx
  402e3c:	48 89 e6             	mov    %rsp,%rsi
  402e3f:	89 df                	mov    %ebx,%edi
  402e41:	e8 1a e0 ff ff       	callq  400e60 <connect@plt>
  402e46:	85 c0                	test   %eax,%eax
  402e48:	79 50                	jns    402e9a <init_driver+0x1c1>
  402e4a:	48 b8 45 72 72 6f 72 	movabs $0x55203a726f727245,%rax
  402e51:	3a 20 55 
  402e54:	48 89 45 00          	mov    %rax,0x0(%rbp)
  402e58:	48 b8 6e 61 62 6c 65 	movabs $0x6f7420656c62616e,%rax
  402e5f:	20 74 6f 
  402e62:	48 89 45 08          	mov    %rax,0x8(%rbp)
  402e66:	48 b8 20 63 6f 6e 6e 	movabs $0x7463656e6e6f6320,%rax
  402e6d:	65 63 74 
  402e70:	48 89 45 10          	mov    %rax,0x10(%rbp)
  402e74:	48 b8 20 74 6f 20 73 	movabs $0x76726573206f7420,%rax
  402e7b:	65 72 76 
  402e7e:	48 89 45 18          	mov    %rax,0x18(%rbp)
  402e82:	66 c7 45 20 65 72    	movw   $0x7265,0x20(%rbp)
  402e88:	c6 45 22 00          	movb   $0x0,0x22(%rbp)
  402e8c:	89 df                	mov    %ebx,%edi
  402e8e:	e8 9d de ff ff       	callq  400d30 <close@plt>
  402e93:	b8 ff ff ff ff       	mov    $0xffffffff,%eax
  402e98:	eb 16                	jmp    402eb0 <init_driver+0x1d7>
  402e9a:	89 df                	mov    %ebx,%edi
  402e9c:	e8 8f de ff ff       	callq  400d30 <close@plt>
  402ea1:	66 c7 45 00 4f 4b    	movw   $0x4b4f,0x0(%rbp)
  402ea7:	c6 45 02 00          	movb   $0x0,0x2(%rbp)
  402eab:	b8 00 00 00 00       	mov    $0x0,%eax
  402eb0:	48 8b 4c 24 18       	mov    0x18(%rsp),%rcx
  402eb5:	64 48 33 0c 25 28 00 	xor    %fs:0x28,%rcx
  402ebc:	00 00 
  402ebe:	74 05                	je     402ec5 <init_driver+0x1ec>
  402ec0:	e8 2b de ff ff       	callq  400cf0 <__stack_chk_fail@plt>
  402ec5:	48 83 c4 28          	add    $0x28,%rsp
  402ec9:	5b                   	pop    %rbx
  402eca:	5d                   	pop    %rbp
  402ecb:	c3                   	retq   

0000000000402ecc <driver_post>:
  402ecc:	53                   	push   %rbx
  402ecd:	4c 89 cb             	mov    %r9,%rbx
  402ed0:	45 85 c0             	test   %r8d,%r8d
  402ed3:	74 27                	je     402efc <driver_post+0x30>
  402ed5:	48 89 ca             	mov    %rcx,%rdx
  402ed8:	be 33 39 40 00       	mov    $0x403933,%esi
  402edd:	bf 01 00 00 00       	mov    $0x1,%edi
  402ee2:	b8 00 00 00 00       	mov    $0x0,%eax
  402ee7:	e8 14 df ff ff       	callq  400e00 <__printf_chk@plt>
  402eec:	66 c7 03 4f 4b       	movw   $0x4b4f,(%rbx)
  402ef1:	c6 43 02 00          	movb   $0x0,0x2(%rbx)
  402ef5:	b8 00 00 00 00       	mov    $0x0,%eax
  402efa:	eb 3f                	jmp    402f3b <driver_post+0x6f>
  402efc:	48 85 ff             	test   %rdi,%rdi
  402eff:	74 2c                	je     402f2d <driver_post+0x61>
  402f01:	80 3f 00             	cmpb   $0x0,(%rdi)
  402f04:	74 27                	je     402f2d <driver_post+0x61>
  402f06:	48 83 ec 08          	sub    $0x8,%rsp
  402f0a:	41 51                	push   %r9
  402f0c:	49 89 c9             	mov    %rcx,%r9
  402f0f:	49 89 d0             	mov    %rdx,%r8
  402f12:	48 89 f9             	mov    %rdi,%rcx
  402f15:	48 89 f2             	mov    %rsi,%rdx
  402f18:	be 9a 3c 00 00       	mov    $0x3c9a,%esi
  402f1d:	bf 25 39 40 00       	mov    $0x403925,%edi
  402f22:	e8 19 f6 ff ff       	callq  402540 <submitr>
  402f27:	48 83 c4 10          	add    $0x10,%rsp
  402f2b:	eb 0e                	jmp    402f3b <driver_post+0x6f>
  402f2d:	66 c7 03 4f 4b       	movw   $0x4b4f,(%rbx)
  402f32:	c6 43 02 00          	movb   $0x0,0x2(%rbx)
  402f36:	b8 00 00 00 00       	mov    $0x0,%eax
  402f3b:	5b                   	pop    %rbx
  402f3c:	c3                   	retq   

0000000000402f3d <check>:
  402f3d:	89 f8                	mov    %edi,%eax
  402f3f:	c1 e8 1c             	shr    $0x1c,%eax
  402f42:	85 c0                	test   %eax,%eax
  402f44:	74 1d                	je     402f63 <check+0x26>
  402f46:	b9 00 00 00 00       	mov    $0x0,%ecx
  402f4b:	eb 0b                	jmp    402f58 <check+0x1b>
  402f4d:	89 f8                	mov    %edi,%eax
  402f4f:	d3 e8                	shr    %cl,%eax
  402f51:	3c 0a                	cmp    $0xa,%al
  402f53:	74 14                	je     402f69 <check+0x2c>
  402f55:	83 c1 08             	add    $0x8,%ecx
  402f58:	83 f9 1f             	cmp    $0x1f,%ecx
  402f5b:	7e f0                	jle    402f4d <check+0x10>
  402f5d:	b8 01 00 00 00       	mov    $0x1,%eax
  402f62:	c3                   	retq   
  402f63:	b8 00 00 00 00       	mov    $0x0,%eax
  402f68:	c3                   	retq   
  402f69:	b8 00 00 00 00       	mov    $0x0,%eax
  402f6e:	c3                   	retq   

0000000000402f6f <gencookie>:
  402f6f:	53                   	push   %rbx
  402f70:	83 c7 01             	add    $0x1,%edi
  402f73:	e8 28 dd ff ff       	callq  400ca0 <srandom@plt>
  402f78:	e8 43 de ff ff       	callq  400dc0 <random@plt>
  402f7d:	89 c3                	mov    %eax,%ebx
  402f7f:	89 c7                	mov    %eax,%edi
  402f81:	e8 b7 ff ff ff       	callq  402f3d <check>
  402f86:	85 c0                	test   %eax,%eax
  402f88:	74 ee                	je     402f78 <gencookie+0x9>
  402f8a:	89 d8                	mov    %ebx,%eax
  402f8c:	5b                   	pop    %rbx
  402f8d:	c3                   	retq   
  402f8e:	66 90                	xchg   %ax,%ax

0000000000402f90 <__libc_csu_init>:
  402f90:	41 57                	push   %r15
  402f92:	41 56                	push   %r14
  402f94:	41 89 ff             	mov    %edi,%r15d
  402f97:	41 55                	push   %r13
  402f99:	41 54                	push   %r12
  402f9b:	4c 8d 25 6e 1e 20 00 	lea    0x201e6e(%rip),%r12        # 604e10 <__frame_dummy_init_array_entry>
  402fa2:	55                   	push   %rbp
  402fa3:	48 8d 2d 6e 1e 20 00 	lea    0x201e6e(%rip),%rbp        # 604e18 <__do_global_dtors_aux_fini_array_entry>
  402faa:	53                   	push   %rbx
  402fab:	49 89 f6             	mov    %rsi,%r14
  402fae:	49 89 d5             	mov    %rdx,%r13
  402fb1:	4c 29 e5             	sub    %r12,%rbp
  402fb4:	48 83 ec 08          	sub    $0x8,%rsp
  402fb8:	48 c1 fd 03          	sar    $0x3,%rbp
  402fbc:	e8 87 dc ff ff       	callq  400c48 <_init>
  402fc1:	48 85 ed             	test   %rbp,%rbp
  402fc4:	74 20                	je     402fe6 <__libc_csu_init+0x56>
  402fc6:	31 db                	xor    %ebx,%ebx
  402fc8:	0f 1f 84 00 00 00 00 	nopl   0x0(%rax,%rax,1)
  402fcf:	00 
  402fd0:	4c 89 ea             	mov    %r13,%rdx
  402fd3:	4c 89 f6             	mov    %r14,%rsi
  402fd6:	44 89 ff             	mov    %r15d,%edi
  402fd9:	41 ff 14 dc          	callq  *(%r12,%rbx,8)
  402fdd:	48 83 c3 01          	add    $0x1,%rbx
  402fe1:	48 39 eb             	cmp    %rbp,%rbx
  402fe4:	75 ea                	jne    402fd0 <__libc_csu_init+0x40>
  402fe6:	48 83 c4 08          	add    $0x8,%rsp
  402fea:	5b                   	pop    %rbx
  402feb:	5d                   	pop    %rbp
  402fec:	41 5c                	pop    %r12
  402fee:	41 5d                	pop    %r13
  402ff0:	41 5e                	pop    %r14
  402ff2:	41 5f                	pop    %r15
  402ff4:	c3                   	retq   
  402ff5:	90                   	nop
  402ff6:	66 2e 0f 1f 84 00 00 	nopw   %cs:0x0(%rax,%rax,1)
  402ffd:	00 00 00 

0000000000403000 <__libc_csu_fini>:
  403000:	f3 c3                	repz retq 

Disassembly of section .fini:

0000000000403004 <_fini>:
  403004:	48 83 ec 08          	sub    $0x8,%rsp
  403008:	48 83 c4 08          	add    $0x8,%rsp
  40300c:	c3                   	retq   
